(dp0
VB\u1e5bnd\u0101vani
p1
(lp2
(V4661925b-c00c-4f7a-9b36-eb79f272370a
p3
F183.249
tp4
a(V811037db-ecd2-44e4-8314-09cac49de053
p5
F327.053125
tp6
a(V1f5a494f-afef-4eea-be1b-ec02007c045e
p7
F425.142875
tp8
a(V2804eac8-ba85-4544-a1c1-e95853c51512
p9
F469.81225
tp10
a(Vaef74d21-afc7-417d-b6cb-ef2f224dc4a4
p11
F487.601625
tp12
asVYamuna kaly\u0101\u1e47i
p13
(lp14
(V65a5c256-3a24-4e66-945b-772f44872260
p15
F191.164125
tp16
a(Vcf95db78-52b7-464f-a79d-93f0b9bfa518
p17
F241.00575
tp18
a(V09dbae0d-2359-474a-8d34-43fec61412fa
p19
F266.3445
tp20
a(Va8fa188e-4be8-4499-bce1-a9ab37df74ff
p21
F274.782125
tp22
a(Vd1d587b9-7bdc-4bbf-a55b-22c8a0da7e12
p23
F316.63025
tp24
a(Ve04b8b68-ea95-4389-897c-6e1ae8366294
p25
F332.068625
tp26
a(V7dae71c1-c921-424d-88d2-0547d7a0b377
p27
F348.20025
tp28
a(V6f68582d-a4e0-4171-89fb-38f38589065f
p29
F374.54375
tp30
a(V89e193e9-a8e6-4c0d-999b-65c33d52a82b
p31
F389.877625
tp32
a(V5510a95d-a7a0-4e48-9a9d-ce20219b9891
p33
F391.445
tp34
a(V93f8a99a-b46a-4735-9f10-ea9fd0276619
p35
F392.594375
tp36
a(Ve3823bb5-6e83-4b9d-9ba6-e74ec41a8835
p37
F409.0515
tp38
a(V61916b6c-f792-499d-b0f0-26b5b3509d26
p39
F440.03275
tp40
a(Va43a083f-3b02-483c-885a-eb3c00973bfa
p41
F470.909375
tp42
a(V9de4787c-cd9e-4d3c-a0ce-d444df5acadb
p43
F506.436
tp44
a(V96f8e3de-a614-421d-903c-7fa12b6a0223
p45
F557.871
tp46
a(Va612cd04-0fcb-40e2-adb8-2bbbae99380e
p47
F1514.60575
tp48
asVUdaya ravicandrika
p49
(lp50
(Vd08f06c8-855f-404e-b0a7-c0737322ea5c
p51
F1326.08
tp52
asV\u015auddadhany\u0101si
p53
(lp54
(V5174d998-0ee2-46ce-a0b7-655b94e55958
p55
F217.31275
tp56
a(V87fbcc69-b9be-444f-a4e6-f36f293262f7
p57
F259.056375
tp58
a(V64bd55d3-90bd-4f7f-b5cf-81f70358b555
p59
F265.456375
tp60
a(V00407784-97c5-4857-b07d-348371f98c68
p61
F332.068625
tp62
a(V9c782c76-59a6-4fe3-9f33-e8364c3a58cb
p63
F368.3005
tp64
a(V4b5c546b-9c11-4743-ab92-6d2ab81d9327
p65
F395.4155
tp66
a(Va50eab17-536a-499b-8679-a06a09702bb2
p67
F414.955125
tp68
a(Vcf1de9db-243b-4f65-847c-9fe81284e25c
p69
F590.419625
tp70
a(V794426a5-7f0f-4629-a07a-d57b9282f86c
p71
F709.186375
tp72
a(V08c1602c-0c20-41b2-afa5-a845635e92d1
p73
F793.64025
tp74
asVJ\u014dnpuri
p75
(lp76
(V2f105c75-5f2b-41e2-b91f-555ee1d3039d
p77
F49.606625
tp78
a(V429f90f5-ba86-4c1f-95c7-4e09215890c6
p79
F161.698
tp80
a(Va2131657-7d45-4e63-ab22-e2daf2a01d88
p81
F173.035125
tp82
a(V6a49dcc5-bfb3-455c-8c35-5ba81763e1b6
p83
F175.07275
tp84
a(V02d0b657-cc6b-47cb-9a1d-27b540d2ca7f
p85
F178.416375
tp86
a(Va454e308-f17c-4e3f-b292-faa63d85b9ef
p87
F183.066125
tp88
a(V5001b4f5-6014-4add-973e-c9e1ffe74562
p89
F195.89225
tp90
a(V5c09b1ea-b2f7-48fd-a235-500ba836b135
p91
F210.352125
tp92
a(Vd37ef5ad-3418-4bfe-a4c6-fcc67a124cc1
p93
F232.646625
tp94
a(Vebd13644-8634-48c9-af6d-fa7e85152f89
p95
F244.84575
tp96
a(V1b803953-fa90-415e-88fa-defbf1247fd7
p97
F273.00575
tp98
a(Ve3c44bc6-3c57-4d23-b710-66cd73c36b85
p99
F291.10125
tp100
a(V196062b4-21b5-45b6-942c-b20aa560f8ce
p101
F340.807625
tp102
a(Vc2022427-9e7e-4192-b00d-98a6c6fe0899
p103
F660.297125
tp104
asVM\u0101navati
p105
(lp106
(Va86a8bfc-544b-43ec-befc-7adc091b4ae2
p107
F173.897125
tp108
asVParas
p109
(lp110
(V0132f2d4-fc41-443a-a2fa-8e984dd9222e
p111
F93.126625
tp112
a(Ve2f49ae9-5e47-4661-9377-a601496bb0fa
p113
F155.8205
tp114
a(Vfb2b75b8-9f05-4980-8c32-2f3e623b487c
p115
F170.527375
tp116
a(V1ad55b9a-4613-469d-ac64-3a8480dd998f
p117
F173.009
tp118
a(Vabee3d98-f392-4a84-a570-3ae3ac7666da
p119
F215.1445
tp120
a(Vdbe4872b-b004-478a-abee-d4796a271c0c
p121
F287.973875
tp122
a(Vb36805da-f88e-4cbd-92fe-e32755691c85
p123
F489.613125
tp124
asVRudrapriya
p125
(lp126
(V15f6d45a-9ec0-4960-a1cf-b4be4ff623dc
p127
F189.28325
tp128
a(V1da2d1b3-8944-4fb2-8c5e-05876cdb3913
p129
F243.826875
tp130
a(Ve130b6b9-8a9d-4f23-9e99-7c08e3116bdc
p131
F329.822125
tp132
a(V7d599c32-407a-42ba-8be2-8d0dc569acce
p133
F329.822125
tp134
asVKanna\u1e0da
p135
(lp136
(Va695e219-1ed8-458a-898a-4a86d19e650f
p137
F221.675125
tp138
a(Vfaeaa20f-e85b-47f4-9717-2b33890c5344
p139
F252.813125
tp140
a(V7b60165d-5e40-45e2-b3d3-4f36a0d99a61
p141
F288.05225
tp142
a(V2c99486a-afab-468b-9217-2910dd7c1c90
p143
F339.98375
tp144
a(Vc98c74a2-25b3-4385-b5eb-ab5f51e57183
p145
F400.48325
tp146
a(V21a2d69d-47bb-49d4-a45f-8d7374967743
p147
F501.05475
tp148
a(V87e3d5f6-40f9-4bf7-8a04-e0782b7f8c54
p149
F517.90375
tp150
a(Vdb96638b-85db-4e6c-a92a-787aa32899c8
p151
F576.235125
tp152
a(V6bda6dad-6816-4d72-89cb-ff1b1f23dae3
p153
F626.311875
tp154
a(V73790bff-6db6-41a2-bc5b-cc8e1bf7e9b1
p155
F740.83275
tp156
a(V357fc51a-8a88-40c6-8649-36e9e5f9e9e9
p157
F879.151
tp158
a(Vcbbd3fa4-8713-4013-9c7b-d899c19afb09
p159
F1000.04575
tp160
a(V52e95910-5a29-408b-afb8-f47551c0fed8
p161
F1133.1135
tp162
asVB\u1e5bnd\u0101vana s\u0101ranga
p163
(lp164
(V1a81f137-b188-4b8b-8e0c-e3c2cc1f85f9
p165
F232.385375
tp166
a(Vffb8628a-bc03-498e-8c43-bd53dc774ded
p167
F333.505375
tp168
a(Vb60da3ab-776e-4a76-a8da-f21e4891584a
p169
F367.41225
tp170
a(V84bc41f0-7301-4206-86c4-88f2aa59bc53
p171
F576.339625
tp172
a(V01d8aa5f-03ee-44cd-88aa-7cee2d3aab49
p173
F592.979625
tp174
a(V770268e7-b8c0-4fa1-ba70-0534e44e7105
p175
F965.538
tp176
a(Vee24ad16-6e25-4639-af8a-2a1b50a5f06f
p177
F1091.213125
tp178
asVBh\u012bmpal\u0101si
p179
(lp180
(Vdcf649d2-02c7-4deb-a998-52e18828ce21
p181
F203.441625
tp182
a(V100f4321-45b2-43b0-b9a5-fa76936ce1bf
p183
F336.196
tp184
a(V4c01bcc8-3332-4302-8dba-802b2006ab71
p185
F349.7535
tp186
a(V05cb0be1-0076-406d-bcfe-5082865dbd3b
p187
F476.917625
tp188
asVK\u012brav\u0101\u1e47i
p189
(lp190
(V5652b385-6839-43e0-92a4-dd79e74ae539
p191
F140.8
tp192
a(V7b1716b8-9f1c-4295-8cfc-776941afef9e
p193
F339.0955
tp194
a(Vb8aeab18-be28-4b95-9699-72181e48df24
p195
F404.42775
tp196
a(Vf548c442-870f-4e2f-8397-1cd048c2bd60
p197
F695.013875
tp198
a(Vb8cb958b-302c-447f-b108-0d48007011dd
p199
F1104.222125
tp200
a(V9949ec81-d9ca-4c62-b313-f3044f38af79
p201
F1355.57225
tp202
a(Vcea0e2d6-87be-4bfc-b1c2-976db9c5427c
p203
F1582.8115
tp204
a(V9d9d0254-9ce3-4a75-a25d-f16575fdf326
p205
F1806.8115
tp206
a(V85832a2f-f4e1-453d-b3a5-f129c86fde9c
p207
F1837.06125
tp208
a(Vf4e8a12d-ac9e-49a5-8251-e7a05e4550ca
p209
F1936.561625
tp210
a(Vf75da9f7-3629-4afd-b477-c7c9f2b45c9c
p211
F2017.201625
tp212
a(V8c9a6f1c-1e83-4b8c-8044-9acd668254a7
p213
F2088.56825
tp214
a(V15f223a7-0308-42de-97e8-f22fdf7081d7
p215
F2354.573125
tp216
a(Vc552ca40-493e-4491-977e-43b9bdb79925
p217
F2554.413375
tp218
a(V654f43ea-e7b5-497e-89ed-74e04e0b1408
p219
F2603.67675
tp220
asVKuntalavar\u0101\u1e37i
p221
(lp222
(V41717c4e-bda0-4048-89f0-7d38ab3467bc
p223
F139.154375
tp224
a(V3ee52921-bdb6-498f-b180-6aa07a41af3b
p225
F170.5535
tp226
a(Vb025f675-26df-4160-abca-228101af4a82
p227
F171.702875
tp228
a(V7f937537-1df7-4d1b-9981-4a03c0de5dde
p229
F229.511875
tp230
a(V72dbf43c-3d9a-4c4e-bca3-a2d6f8ec958b
p231
F240.03925
tp232
a(Vde98f22d-7f58-49c4-946d-ba7e8e4aa69c
p233
F240.03925
tp234
a(Vce178cf3-8e1e-4e57-be0f-27143a6551db
p235
F257.671875
tp236
a(Va00a9e81-a90e-48b3-a3d3-336cf2b0951b
p237
F272.105875
tp238
a(V7a2ad9f9-d845-421f-9ea5-fa82a531ac37
p239
F290.638375
tp240
a(Veac3dc29-5bc4-4301-9545-034a81ce8914
p241
F299.441625
tp242
a(V8b7dddb1-0dec-434d-b461-153b8af03be9
p243
F308.53225
tp244
a(V0b7bdc50-4a7e-401c-96d1-bd34dffba3b9
p245
F551.50675
tp246
a(V352a7847-1621-4016-a0e6-cc29379c79b1
p247
F942.68075
tp248
asVN\u0101\u1e6da
p249
(lp250
(V6ba73b55-24e8-4efd-befc-1c8c163f2e17
p251
F254.6155
tp252
a(Vaee1e256-38fc-4721-9cc9-403542ac0b94
p253
F256.88825
tp254
a(V59388f3b-0aa3-4e70-8467-0d22ada00ada
p255
F280.58125
tp256
a(V9449e420-b340-4475-ad25-676460010369
p257
F306.155125
tp258
a(V2b492949-7b59-4e23-8695-0d6819d29485
p259
F347.977125
tp260
a(Vaaa77365-8f3d-4a7d-9fb7-b81a82b40771
p261
F377.991875
tp262
a(V4c754755-b34a-4eac-930d-27e4aef4bd10
p263
F389.668625
tp264
a(V9a627bbf-45e5-4fc2-8a57-c423a7c94a83
p265
F448.47025
tp266
a(V41b3231c-6b46-4eb8-bc20-67ff3f065fd3
p267
F452.676
tp268
a(Va63aa976-e154-4409-855f-c00c6291aec9
p269
F482.377125
tp270
a(Vde94ed93-7399-47e3-aa8e-d77b49d94bd3
p271
F523.807375
tp272
a(Vb3b117ed-5acb-4c3d-bdc6-842fe64ffc5f
p273
F532.453875
tp274
a(V3959bd90-bbe8-45d2-87de-3158a4298865
p275
F537.65225
tp276
a(V7b17b1b5-81f4-41bd-8f4f-df16637f521e
p277
F538.07025
tp278
a(V1e2f83ca-b0ce-4f12-a571-037cdc676738
p279
F542.3805
tp280
a(V093e2164-a5cc-4cdd-b377-6894d2953a05
p281
F551.07925
tp282
a(Vc81aa59b-bcc7-4199-a27a-0ded0764c8f3
p283
F563.2
tp284
a(Vc1771dbf-df4c-4824-8f8f-a24a8682ede5
p285
F565.26375
tp286
a(V3a78d745-b3e1-4ed4-b530-0b15e74b85a9
p287
F572.2645
tp288
a(V91195a3f-b411-47e1-b16c-a507e44d891d
p289
F580.989375
tp290
a(Ve8027bb2-7550-4da5-afed-e40e353d497b
p291
F600.099125
tp292
a(V5226b897-06fc-4032-9766-66e5b19e74fb
p293
F633.013375
tp294
a(Ve878a71a-8f1e-4fe0-8bdd-a64664328edd
p295
F649.2615
tp296
a(V7c9033e4-16f3-4338-a4e5-4af066e25ba6
p297
F733.49225
tp298
a(Ve94896a8-a5a8-4e9e-b5e9-3e5f2e956900
p299
F750.001625
tp300
a(V75ee90c8-42df-4410-9f3a-e1e0968cfb15
p301
F817.789375
tp302
a(V9cfa8a63-5ffe-4f48-ae53-ffbe74b03f55
p303
F893.649
tp304
asV\u0100bh\u0113ri
p305
(lp306
(Vbac2abc9-13db-451a-8abb-0213d30d2307
p307
F183.222875
tp308
a(V71861c29-02d3-425e-8a42-47d6bee34676
p309
F230.844125
tp310
a(Va6d80f8e-28cb-4d84-b585-9e74cd4d4cf8
p311
F259.709375
tp312
a(V8a0975ba-daf3-49b3-8cc8-bbff19e802ae
p313
F326.66125
tp314
a(Ve78556e6-b112-4624-850b-7cbaf688faf2
p315
F356.885
tp316
a(Vb022767c-12d9-451e-88d2-27963e47643d
p317
F388.597625
tp318
a(Vc8042bb4-3a66-4d05-922d-3065af19915f
p319
F907.076
tp320
a(V3b82070a-4fae-4988-b2ae-8cc83d79faae
p321
F1132.50675
tp322
a(V67952a7b-be48-4bf7-9ce3-3d32e3fbdf50
p323
F1604.806625
tp324
a(V5be6d93d-4ce9-42d1-aefb-a9159bd5bccf
p325
F2025.613125
tp326
a(V1f14774f-7e3c-4579-a4e2-4d3b1847c198
p327
F2822.00825
tp328
a(V4966ea14-b25e-4611-b224-1847dadc2534
p329
F3591.601625
tp330
asVHamsadhvani
p331
(lp332
(V373d0719-1251-40be-983d-5a12dec2d522
p333
F84.83375
tp334
a(Vef08831b-d4dc-4aef-bd56-e04df07e05f2
p335
F259.866125
tp336
a(Vc1decad7-4b6d-4512-b013-05c9c60addcc
p337
F266.64
tp338
a(V60e964ff-34e4-4a68-b981-1e3285241248
p339
F320.7315
tp340
a(Vcac9319e-c16a-436d-bcbe-fa032f34df9e
p341
F336.274375
tp342
a(Vbeb12d31-0e8a-4c8a-93eb-36fa024c15b4
p343
F356.597625
tp344
a(V573f34a7-3d87-4ca8-a2ad-e5bc9a8b8abb
p345
F394.84075
tp346
a(V1dde322e-a880-4785-913c-538063e5d1c6
p347
F439.902125
tp348
a(V4db4512e-76c6-4fed-ae8d-fe9db39bda20
p349
F461.557625
tp350
a(V8cfca436-99cb-47b5-8a7f-38769ffd41f5
p351
F475.94675
tp352
a(V0d3e4df4-d483-4820-93dc-bc520eda775f
p353
F491.4155
tp354
a(V7ea019cb-4d10-4a92-a3da-d5251852d062
p355
F495.83025
tp356
a(V40ecccaf-46d9-42a3-a709-e5202a1e22ec
p357
F559.856375
tp358
a(V1c7fec41-6eb3-4263-9402-4cb1a1650d4b
p359
F667.87275
tp360
a(V5cc65465-28f3-49fc-86bb-b5bd42198d07
p361
F732.52575
tp362
a(Vd7765575-f9cb-4804-89a6-e70b8ced640c
p363
F761.286625
tp364
a(V157da045-c7b9-44c0-a346-346ac8960aa1
p365
F762.5405
tp366
a(Vd088bb6d-85d6-4154-b8c9-90bff98617c1
p367
F808.698875
tp368
a(Vd8b266f4-91c8-4ad9-b668-6ccbde9156d2
p369
F813.14675
tp370
a(V6125b10f-de36-4dfc-b75b-f810b05089b2
p371
F848.58775
tp372
a(V3dfcbdcb-0bf6-4cf6-a329-0d458877ab6a
p373
F961.33225
tp374
a(Ve3bbb8fc-be01-4954-8f77-ae1806673fb4
p375
F1016.711875
tp376
a(Vbc5cfe86-1aaf-4d60-bb95-bcdc22cf47ff
p377
F1019.324125
tp378
a(Ve2ddf1f9-4f3a-44f2-9148-0f3d1f1d9fa6
p379
F1100.19925
tp380
asVN\u0101ga g\u0101ndh\u0101ri
p381
(lp382
(V5dbf2c29-08d5-4aa3-8acd-780d73c2d396
p383
F195.84
tp384
asVVar\u1e47ar\u016bpini
p385
(lp386
(Va37a07ad-ff3d-4512-a4e3-7405b0cd4859
p387
F519.28825
tp388
asVR\u012btigau\u1e37a
p389
(lp390
(V1c0ed48b-fb7d-4137-8cc4-1222909ef0ad
p391
F203.755125
tp392
a(V7d0561b3-4aef-4702-95da-3ebbda964d9a
p393
F209.1625
tp394
a(V5342db4f-4b6c-4a87-8f93-68ee303d0f32
p395
F218.697125
tp396
a(V6e553239-51d9-4750-b9b0-71ab58968e5f
p397
F332.773875
tp398
a(V8b818d77-6209-4fa9-b099-6ab9137d9185
p399
F366.628625
tp400
a(Vcfaa7cb6-4a84-4a93-b3a9-371f5bf1b0bb
p401
F384.15675
tp402
a(Veab9870a-5dcb-4711-874a-6b27420d7f9b
p403
F407.5625
tp404
a(V2090d3b6-e738-43bd-ba59-0e3836e6226f
p405
F409.10375
tp406
a(V3845625a-e186-44c3-b8f9-b47c1ca155bb
p407
F517.081875
tp408
a(V029adb58-0f47-4c96-8f12-b7e31fc889bb
p409
F521.978875
tp410
a(Vdf035266-18b0-4609-95b0-544d315cf928
p411
F524.51275
tp412
a(V5fa0bcfd-c71e-4d6f-940e-0cef6fbc2a32
p413
F526.695
tp414
a(Va1a8c24e-1403-40f1-a2a8-49fd3ef6e1d6
p415
F546.742875
tp416
a(V3bd455d5-1319-45e9-822c-2207adf9b363
p417
F580.127375
tp418
a(Vdccd07e9-3389-423b-a9cd-df423acebd92
p419
F704.7315
tp420
a(Vd67dff95-22ca-499b-908a-7fca512613f0
p421
F742.791875
tp422
a(Ve19c5bd5-d9b1-42cf-af02-4af8fe664fa2
p423
F766.72
tp424
a(V65e824a1-9527-44e5-b272-486525b3061b
p425
F853.629375
tp426
a(Vc4184218-1465-4694-ba4e-7a32959500bc
p427
F904.25475
tp428
a(V7683b392-1b5b-4c4e-bdfc-683c22e0898f
p429
F1070.75925
tp430
a(V0e18f634-9792-4024-9823-c3705464ac31
p431
F1092.10125
tp432
a(V4400a72c-6d9f-4992-820c-c8275ca31622
p433
F1097.169
tp434
a(V974b7eb2-40ad-4878-8c52-2d3701aa1598
p435
F1329.476
tp436
a(V6feaf61d-1ac3-4f35-a73f-7f4ea6647056
p437
F1364.206875
tp438
a(V560fe16b-6585-4eb5-94f4-92fffb7a481d
p439
F1385.0
tp440
a(V21f72d0f-5167-4c89-b312-84574b65613b
p441
F1741.026125
tp442
a(Vce814724-6dd5-4fe0-8526-616e4f89b3e2
p443
F2442.318375
tp444
asVAm\u1e5btav\u0101hi\u1e47i
p445
(lp446
(V62dc7c50-2359-481a-a94b-ded6616f0fd8
p447
F230.24325
tp448
asVJayantas\u0113na
p449
(lp450
(Vab67cfe2-6d3f-448e-b4fb-b653e4b74baa
p451
F350.066875
tp452
a(Vcba57d4b-c58f-409f-aa20-bfce628d8a54
p453
F636.656375
tp454
asVN\u0101r\u0101ya\u1e47i
p455
(lp456
(V13f59785-182d-4fbe-99fc-7e4617af5e33
p457
F615.94125
tp458
asVGa\u1e41bh\u012bra v\u0101\u1e47i
p459
(lp460
(Vc44d9292-b13d-4022-85d4-60ee6ff16389
p461
F278.099625
tp462
asVD\u012bp\u0101\u1e37i
p463
(lp464
(Ve4ddc945-357e-4755-a06e-2f8c2e7c3520
p465
F44.356
tp466
a(Vd2d0d685-b7a1-40c3-b894-c6351e4902cf
p467
F414.8245
tp468
asVM\u0101n\u1e0du
p469
(lp470
(V21cc709c-64bb-4871-9be5-9ddb3e42adc5
p471
F138.057125
tp472
a(V18e41e37-1f5f-4eff-abfa-68459338c212
p473
F139.6245
tp474
a(Vfadb943f-7ce6-40dc-9459-1e798088a93b
p475
F229.2245
tp476
a(Vc9dd28e4-9ff2-4538-9da1-76e3f1f21c04
p477
F249.96575
tp478
a(Vbe69dd23-89ac-432c-a2a4-d3b0a3a5cdec
p479
F272.58775
tp480
a(Vfb7ac519-9471-45ea-94ad-a3e38dd53648
p481
F322.992125
tp482
a(V34eea34d-d1f5-46dc-b83b-8a862b42aca2
p483
F329.404125
tp484
a(V8b90c893-ff35-440e-80ea-d8ea7efbdff1
p485
F344.529
tp486
a(V53913c34-c9d2-4a88-8a6b-e36dfaf1e7f5
p487
F355.317625
tp488
a(V71dd703a-fff5-409e-b40a-2820a9f0e2ae
p489
F360.124125
tp490
a(V0b39d818-ca8a-4762-b1b0-b20c8db24a97
p491
F360.4115
tp492
asVV\u0113l\u0101vali
p493
(lp494
(Vbc1fb244-603b-45e1-a179-febb68d7b0cb
p495
F46.053875
tp496
asV\u015auddas\u012bmantini
p497
(lp498
(V442b2c20-072b-4d92-b201-838f58022cfb
p499
F340.271
tp500
asVR\u0101mapriya
p501
(lp502
(V5c046343-cde4-4487-9450-ab1bf3b1ce53
p503
F1402.5405
tp504
asVGurj\u0101ri
p505
(lp506
(V61b8188b-14fb-42cd-bc00-67ab95fee586
p507
F416.5225
tp508
asVP\u0101\u1e0di
p509
(lp510
(Vf8e219c6-37c4-4fe8-93f4-894c7c161438
p511
F341.316
tp512
a(Vc3d84d0f-4876-4548-a513-c949b0757636
p513
F347.312125
tp514
a(V7e1e3421-8735-4df8-8075-a6553f2588ed
p515
F487.877
tp516
asVS\u0101ranga
p517
(lp518
(Va9c47da7-2831-4ee6-8cc4-dab879346c8e
p519
F249.365
tp520
a(Vd3bd956e-7f36-4cda-bf0c-367d05c9c816
p521
F281.573875
tp522
a(Vca0a3572-64ab-48be-93a9-b6d05cd86285
p523
F356.71625
tp524
a(V87cea062-1a77-4c46-9450-4cdd31ade929
p525
F642.61225
tp526
asVValaji
p527
(lp528
(Va0b1de7c-930b-4d8f-b2c5-edadeb7a2afc
p529
F192.757625
tp530
a(V33ef2098-d4ba-40ec-b972-dbda5114e3e2
p531
F269.348625
tp532
a(V1cc69825-7249-4e76-ae3b-14184c94f068
p533
F357.407375
tp534
a(Vd7a1c7e7-a893-4724-b50c-05f5a7393fcd
p535
F384.209
tp536
a(V45e8425f-81ea-4145-9935-fe27ca47b32d
p537
F435.35675
tp538
a(V3d935f9f-d20d-4fea-a510-cd98fb6b3202
p539
F1084.969875
tp540
asVS\u0101laga bhairavi
p541
(lp542
(V6fb02d72-120f-415a-bf46-cd455a61165c
p543
F178.155125
tp544
a(V70e45e27-e11b-4529-893b-5b6b0e682dbb
p545
F243.618
tp546
a(V3f26eba1-8d0f-4158-9f4c-179079682794
p547
F260.597625
tp548
a(V6d8f6cee-7277-4788-96b2-f2542280579b
p549
F298.579625
tp550
a(Vd8d9779f-6e59-471c-992e-af522ca1daaa
p551
F300.814125
tp552
a(V131b95b1-601a-4a6e-bdd2-a5e83cc907bc
p553
F506.618875
tp554
asVG\u0101nav\u0101ridhi
p555
(lp556
(V298036a2-a107-4efd-94ed-619668135d40
p557
F161.619625
tp558
asVDharm\u0101vati
p559
(lp560
(V8719a395-6ed6-4f4a-a1f5-cdfab97e7c36
p561
F832.209
tp562
a(Vf9b60e77-2721-43de-ad0b-915bd54c8b99
p563
F1038.65475
tp564
a(Vef52c79f-7a5f-4d74-862f-81dd64dcf550
p565
F1188.702125
tp566
a(V5459cc3a-d65d-4550-a483-4fff24c2d0ed
p567
F2801.058
tp568
a(V49578aee-38b2-467a-baba-6ac29d09c165
p569
F2979.7355
tp570
a(V7d1729f1-834b-449a-9a8e-8866037b5775
p571
F3355.24575
tp572
asVRasikapriya
p573
(lp574
(Vecdf16d6-c257-40c6-a38f-153f5796fef0
p575
F378.48825
tp576
a(V3e912318-c703-4048-b0ce-103fb51dbd21
p577
F384.57475
tp578
a(V1836f967-8cb5-4586-936d-e4f349d51ffb
p579
F667.324125
tp580
a(Vf95f51b0-beed-4ea8-9206-e241af61a96c
p581
F667.324125
tp582
a(V79d502f1-2fbb-4c5e-bf2c-8eb2a452730c
p583
F1589.878625
tp584
asVK\u0101pi
p585
(lp586
(Va91ca01b-3338-4968-815a-6ae61644ccb5
p587
F170.16
tp588
a(Va89bca68-e5b9-4d41-b11d-b042d1f9ef17
p589
F217.31275
tp590
a(Vaced03bd-31df-421e-9ca3-fa62e0326380
p591
F220.0
tp592
a(V3d13fd51-456e-46d6-a6e7-c6e50991fdac
p593
F231.62775
tp594
a(Vf769247c-e0c7-4078-8c5a-6741d12d06dd
p595
F235.88575
tp596
a(V5853dea4-9f86-4f62-8f47-abc520f3493e
p597
F253.90675
tp598
a(V30c963e5-5b9f-4a79-b83f-ce7484a7d104
p599
F280.293875
tp600
a(V16fbd94c-b09c-44d9-8d0f-841ada1b62c7
p601
F287.71275
tp602
a(Vc5183aa1-99df-490a-bdbd-573efae1e0f6
p603
F306.49475
tp604
a(V2c666f9b-17ae-4b27-8d29-a2bb49c2c2f5
p605
F312.47675
tp606
a(Vf0cafa26-83a2-425c-8fab-33bcfb78e09f
p607
F323.657125
tp608
a(Vfcaf0f41-b69b-4052-ab3a-75e77b99b445
p609
F327.18375
tp610
a(V0edbc0b8-fbe9-4b24-9865-2d90d278af34
p611
F338.59925
tp612
a(V1ec57f9c-09d8-42fd-b159-86a835859b80
p613
F340.54675
tp614
a(V9f273724-431e-4d46-95f7-d74ca1fdb14e
p615
F368.822875
tp616
a(Vaf739bda-e149-43e7-8e37-a83697909ca7
p617
F399.72
tp618
a(V31ca1f76-ce7a-42f4-b429-ca43ef6b2ba1
p619
F417.12325
tp620
a(Vf1f04b03-3f91-4d31-bf7b-6c21d26eeb7e
p621
F421.38125
tp622
a(Va95de9f2-653e-4555-b96a-f096ccee72e4
p623
F431.490625
tp624
a(V92c61c93-4a02-457e-8416-30af03d207dd
p625
F439.876
tp626
a(Vd6b02b8d-ae96-4a43-a8a5-2cc830761cce
p627
F461.662125
tp628
a(V62107f21-e1b0-4cd2-bfcd-765ae205b7f8
p629
F633.887375
tp630
a(V620e2384-7ee1-4208-b231-ef544e100c66
p631
F645.616375
tp632
a(V3f0ea455-7e47-48c6-942a-9dd60d36e04b
p633
F696.346125
tp634
a(V348fb2e3-036f-4389-bda0-bd1531809d05
p635
F738.142125
tp636
a(V328a57cf-efbd-4cf3-a6ed-f22d2d4f3d43
p637
F1070.75925
tp638
a(Vd3cd8354-2a08-4607-8f03-ba70533ada33
p639
F2274.71675
tp640
a(Vca0ab807-3c90-4fde-8612-260729350a69
p641
F3007.8955
tp642
asVSaur\u0101\u1e63tra\u1e41
p643
(lp644
(Vbf9c028d-ee36-436b-b0ee-e3c2d98aeb70
p645
F33.776375
tp646
a(V59d56022-1617-443d-9e92-e21257958883
p647
F42.50475
tp648
a(V2bb36f85-b493-4b9b-aeb0-5848a9163cce
p649
F46.133375
tp650
a(Ve64d584e-658e-46d1-9186-90084de4312f
p651
F49.533375
tp652
a(V2f4d9a24-4372-4b96-98f9-43e400229d3f
p653
F49.998375
tp654
a(V3b408f37-b07b-4e1f-96bd-f9f29ba28480
p655
F53.316
tp656
a(V84bb9064-b64c-4643-9fbb-192d043288e6
p657
F56.16325
tp658
a(Vf6e9369d-4656-4dd5-9fe1-d717ecd7b62f
p659
F57.588
tp660
a(V0cf039f0-5f6a-4396-abd8-f324cafa7452
p661
F57.86125
tp662
a(V8709b061-804f-4304-8bec-620318ee507b
p663
F57.86125
tp664
a(V371b9cd0-28c1-448a-b189-68f99be5fca1
p665
F58.409875
tp666
a(Vbee9ebab-5fbe-481d-a810-092b3fecad9f
p667
F62.276
tp668
a(Vf2237ae1-a29c-4ac6-9bea-b7e65ec8aaf7
p669
F62.373375
tp670
a(Vccd24d30-435e-4b82-8208-441e48ee67f5
p671
F65.045
tp672
a(V59685fe8-b6dd-45b7-9df7-b79724176fb8
p673
F66.089875
tp674
a(V4be434e0-385a-453c-a131-fc42dc6e5fae
p675
F69.564125
tp676
a(V49351bdc-6576-4b59-9707-ca2bb3fb0612
p677
F70.791875
tp678
a(V517c0ae9-5d96-462a-803c-b1222aab3719
p679
F72.333125
tp680
a(Vccbd3be4-fdb5-44e6-8fc2-e543c72ddafa
p681
F76.225375
tp682
a(V36f4975d-7e56-4aa0-95e7-7e0a7a920cd1
p683
F76.30375
tp684
a(Vbb9e886c-d9ce-480f-b0a3-64f869cc70a8
p685
F78.068
tp686
a(V7f9d29b2-f615-4032-ad2f-a6250b14a000
p687
F80.0795
tp688
a(V25ecad2b-5e11-46d7-a538-7a1f43b24e34
p689
F85.25175
tp690
a(Vb4b84f90-35ff-4e9f-a71e-ac9acf02866b
p691
F88.47675
tp692
a(V1eba45e8-2119-48fd-a68b-4c3669fe8c69
p693
F92.996
tp694
a(Ve31eab59-1efd-42eb-9485-248cf3682ae7
p695
F95.6605
tp696
a(Vd2cb824f-7cb3-4150-8eb8-c597b97146e6
p697
F101.27675
tp698
a(V36b1351c-0def-4009-9134-941bb38a715a
p699
F112.69225
tp700
a(V90daee17-e2c2-4e23-b29c-b8a6844b11df
p701
F142.315125
tp702
a(V97ccb0e5-26c1-4c98-9250-7dd5021dd613
p703
F143.86675
tp704
a(V94a4c7ec-5b31-4bef-b1a2-bee31decf86d
p705
F157.231
tp706
a(V24d942f4-0c26-40e0-b1a4-fe8d12db54b0
p707
F158.511
tp708
a(V322d7791-af5b-4ea8-bf0a-dd5cc3e7ec5d
p709
F210.050625
tp710
a(V0612cce9-ae1b-457a-abf5-517e728b60fd
p711
F260.022875
tp712
a(Ve7620f72-3933-477f-9f83-ad77e8f18acc
p713
F290.06375
tp714
a(V4fad4cc0-93f2-43fa-9cab-32cf5f7b34ba
p715
F303.93475
tp716
a(V37b6e496-c56a-4bc1-8f09-f8f0f53e2f0a
p717
F309.498875
tp718
a(V6d4c060a-3567-4edf-a8cd-8a0e9a867d79
p719
F311.06675
tp720
a(V2622eec0-807c-4a06-94d0-a3cb1dded874
p721
F334.524125
tp722
a(V3a57699f-8cdc-4bb3-aefe-c18641b7d00a
p723
F359.497125
tp724
a(Vdb041c75-a415-44af-976e-3d16e0ebab46
p725
F360.071875
tp726
a(V8f7371e2-9955-4c63-8644-89eb2000553b
p727
F370.0245
tp728
a(V636bef05-fd90-4cc6-8de9-dd1302ae8df2
p729
F391.653875
tp730
a(V64d56c31-1e16-4b89-a8c6-174f6d0e7336
p731
F392.50675
tp732
a(V5945b2ca-ddb2-44f1-8c96-ca75c9c76c31
p733
F396.173125
tp734
a(V94bc2c9b-b416-4206-b31f-5ac4c50cbc60
p735
F407.536375
tp736
a(V7be1b760-79a4-4411-bc32-1a468ef789da
p737
F460.0
tp738
a(V4faa4da4-4913-4912-9e62-a1396f324674
p739
F461.9755
tp740
a(V2ec8c539-aa0f-4d90-aae0-8cde2056e7a4
p741
F582.0605
tp742
asVGau\u1e0da malh\u0101r
p743
(lp744
(V084f43ea-76d0-4883-9a93-5499761a211b
p745
F215.51025
tp746
a(V09dd04c9-e8e5-4e79-a5c4-591923e7be89
p747
F397.92325
tp748
asVKurinji
p749
(lp750
(V29e0de86-bec2-402c-916b-fc2f469c9c56
p751
F53.446625
tp752
a(Vc82417ab-6976-4115-b607-025c4665e5b8
p753
F281.96575
tp754
a(V82f0bee3-b605-4607-a68d-7e91124da60b
p755
F333.949375
tp756
a(V349ebbb3-3cb6-4634-b485-3975ee1134d4
p757
F374.857125
tp758
a(Vb8633580-1d94-4618-aa2c-25d27cdbd1bc
p759
F550.426125
tp760
a(V46134cee-b5dd-459f-92d1-a027741b31a0
p761
F1035.493875
tp762
asVGaur\u012bman\u014dhari
p763
(lp764
(Vb23910b5-f477-433e-9252-a49b84ed4ca1
p765
F281.809
tp766
a(V1e5f4444-5199-4cf4-9224-fbf0eeefb257
p767
F369.97225
tp768
a(Vd3bb6e4f-38af-4bfd-b133-4b09b3b9c5fd
p769
F551.39275
tp770
a(V321c3d49-39b9-4f08-94af-9fffc5b10a2c
p771
F649.874375
tp772
a(Vb797f787-bbe9-41e7-927b-e4b63b145112
p773
F649.874375
tp774
a(V2ae073e5-8ac5-44d8-be46-6c877ff6942b
p775
F867.866125
tp776
asV\u015audda s\u0101rang
p777
(lp778
(V4ac3b21f-db05-4185-982b-17954c8a451f
p779
F330.5535
tp780
a(V6a0cb745-84f0-4891-b810-0a22032f48a1
p781
F351.32075
tp782
a(Ve7bf6483-d22b-4daf-8f49-b01509d3f8d6
p783
F1184.235125
tp784
asV\u0100hiri
p785
(lp786
(Veadae381-006f-4a68-87ac-ade75ecaf968
p787
F182.831
tp788
a(Vb25e81ba-4a2e-44a9-bd32-7fb834e04a07
p789
F248.68575
tp790
a(V1982bb26-03a7-4e4b-b6c8-e81426e16c08
p791
F292.911
tp792
a(V682176db-677a-4e95-9a53-82b1f79305ed
p793
F319.529875
tp794
a(V5c29175f-6ad7-4b0a-9053-ceeb267d4606
p795
F378.436
tp796
a(V81feba0a-3aab-48de-bf37-de638e4c55a5
p797
F429.949375
tp798
a(V4ea96a7b-d205-489e-b890-7eede2b60313
p799
F435.56575
tp800
a(V95937dc1-044d-4f05-98c8-dfe4d0cb84ed
p801
F439.013875
tp802
a(V00d02d22-8f2f-4a0a-b41a-7f5364f0a8f2
p803
F460.773875
tp804
a(Vba5d37a3-63f9-4ac0-85a4-c07d2a671058
p805
F922.93225
tp806
asVP\u016brvi
p807
(lp808
(V6c7cd460-6ff2-41dd-a6f7-7f6bea843a21
p809
F260.885
tp810
a(Va17aefd7-a7cc-4973-9c91-d0fbded6e891
p811
F396.2515
tp812
asVCarturda\u015ba r\u0101gam\u0101lika
p813
(lp814
(V5769ea2f-aed4-4169-9a20-bae4cb733b8e
p815
F854.569875
tp816
asVN\u0101\u1e6dakurinji
p817
(lp818
(V7a97a224-559e-415f-8c52-ae0c44edf39d
p819
F201.142875
tp820
a(V64a4af23-ad15-4768-a9f1-252145b04dae
p821
F249.573875
tp822
a(V8fa2b795-4d17-4fde-932d-b4935bbcd722
p823
F296.4115
tp824
a(V68d1c809-bfbc-4077-888e-c115bcfaedc1
p825
F298.18775
tp826
a(Vac4d18d2-04ad-4c2a-9ea3-ac3170fd1f2f
p827
F326.87025
tp828
a(V72b03d0a-cde3-444a-bf08-bb280d6c44bb
p829
F336.03925
tp830
a(Vdcf8f43c-a372-44ab-8d2f-1472175de472
p831
F338.155125
tp832
a(V46cea833-d338-468d-a00d-393efa64c94e
p833
F344.607375
tp834
a(V9928cb23-86c7-4ad9-a52c-c2213ba85ce7
p835
F348.8915
tp836
a(V2e22d4ee-ebb6-4b53-92de-916bd4d0bcf0
p837
F371.644125
tp838
a(V93a70e18-c3ba-4c72-b8d1-85f87d0c9e36
p839
F385.28
tp840
a(V4a596435-7fa4-43c7-9739-ddf281947868
p841
F417.54125
tp842
a(Vf1c0307a-f32b-4c99-a63b-0ba86d1791cf
p843
F422.321625
tp844
a(V472bd121-7c06-44f6-b287-fe3ef3e7435f
p845
F430.994375
tp846
a(V08f924be-a91c-4493-9d95-63260cb5c8f4
p847
F441.626125
tp848
a(Va074b89d-7471-49ac-8fef-1ca0078a0307
p849
F446.693875
tp850
a(V424bbbd7-371e-4963-b763-032fbb128d41
p851
F452.3625
tp852
a(Vd590b043-cf97-4488-bf24-f09db3acda08
p853
F617.508625
tp854
a(V7fe952a8-6aa2-4002-89ff-659cb59bb1b5
p855
F654.471875
tp856
a(Vdc1c1ce3-3267-4561-920d-9ea6b157cfdf
p857
F804.075125
tp858
a(V40a01892-c4c1-429e-b54f-ea7a57e1a38e
p859
F952.37225
tp860
a(V83dba5f0-3a3f-48df-9080-fc3958c72db0
p861
F1460.63675
tp862
a(Vc2755408-2b3b-46c6-ba21-fb598426be39
p863
F1740.173125
tp864
a(V8a004a11-2947-407a-b358-576ee98c5c8d
p865
F3255.484125
tp866
asVK\u0101maranjani
p867
(lp868
(V9709590d-cc8c-4da6-84e6-a044756a3b76
p869
F507.951
tp870
asV\u0100nandabhairavi
p871
(lp872
(V10f540e5-1774-428a-85f0-d7de2d8a7780
p873
F137.404125
tp874
a(Vfaa698d4-40c2-4c2e-9a9a-ce28619d13f6
p875
F226.50775
tp876
a(V60574f1d-5b72-4ba0-b877-172484651c22
p877
F257.515125
tp878
a(V848b44ad-7d93-423a-88be-80866a1c269d
p879
F272.7445
tp880
a(V09d56269-1fd8-4fb5-928c-71605ed01e17
p881
F289.54125
tp882
a(V48bab94d-f0df-4a3b-836f-5a9770f6414a
p883
F339.069375
tp884
a(V3c95e14f-7821-400a-b7a5-8efaa40bee6e
p885
F411.298
tp886
a(V2e996fe3-4b45-4e62-ac33-6c2c2142660c
p887
F444.63025
tp888
a(V408f4ef0-316b-48ea-b52d-2b0cefb696e4
p889
F446.3805
tp890
a(Vf367bcc9-07ab-480a-a5ae-0880446295de
p891
F488.881625
tp892
a(V3baa722d-480e-4ae7-8559-a88dce41e1d4
p893
F507.324125
tp894
a(Vebf9ea96-a0d6-4764-8c29-6e72a01d1342
p895
F560.9535
tp896
a(V90615b61-f052-4f29-8003-4a53be4ad723
p897
F653.871
tp898
a(Va8ecff2f-f2ce-406f-a7a9-a5976b99521c
p899
F662.845125
tp900
a(Vc21c8079-5df3-4808-9255-cfbec2a0543d
p901
F714.5535
tp902
a(V766235e1-3c93-4181-bb7d-31623f3bfd2d
p903
F788.3755
tp904
a(V0f212bc3-4ea9-47ef-baa2-b696ca7a2f90
p905
F802.06375
tp906
a(V667661dc-8195-4c67-840d-b595ed4db9cc
p907
F919.51025
tp908
a(Vbd88b9a5-665f-4af6-9c61-cdd8508c8d48
p909
F940.6955
tp910
a(V2804fd4d-f9bd-42d4-a65c-e16c690ce51e
p911
F951.384
tp912
a(Vd9542546-7944-42f2-9c26-4d648cc25d80
p913
F1217.64575
tp914
a(Ve082f13b-e724-48b5-aec4-108fe5a37df8
p915
F1651.70675
tp916
a(V2f8a2adb-697c-4164-8d36-7cb60933aeaa
p917
F1937.737125
tp918
asVD\u0113vaman\u014dhari
p919
(lp920
(Vc0945b31-038d-4473-bba7-01039e72ee5f
p921
F251.48075
tp922
a(V8556e1d8-cffa-4a97-b6a4-cac3e4d7d13b
p923
F317.15275
tp924
a(V72b3d23f-6b67-4107-99e5-56af679ea3ad
p925
F348.186125
tp926
a(V58109899-fdda-4edb-a1bb-d74a6aad9878
p927
F362.057125
tp928
a(Ve9e0c0eb-d20e-488b-95b8-712dc781d459
p929
F396.773875
tp930
a(V8d957d3c-ea79-42e0-85d7-97aab13970aa
p931
F425.56075
tp932
a(V4cce25c2-7ffe-431c-9665-0e3d7ac4d75e
p933
F429.949375
tp934
a(V785d8499-657d-4901-966f-98e29f310328
p935
F837.72075
tp936
a(Vf34f7f96-5a12-4df0-b775-3ac37b5dc754
p937
F843.337125
tp938
a(Va0585311-ade3-4975-b3c0-b8793e17472f
p939
F1137.946125
tp940
asVCandrajy\u014dti
p941
(lp942
(V8963ccbd-ba6a-4e48-97fb-0bda98e2d638
p943
F258.429375
tp944
a(V0fd8801b-b40b-4ad9-addb-b59a7abd0ddc
p945
F321.85475
tp946
a(Vd9e0c9ec-4413-4ed5-bb0f-889e10683844
p947
F383.738875
tp948
a(Vf4b0be15-54e6-4907-882a-d575b496b803
p949
F921.573875
tp950
asVBhairavi
p951
(lp952
(V615d44fe-eb56-4c61-83d5-16a1d8c303eb
p953
F136.96
tp954
a(Vc9d479d4-3ab1-4353-b5ce-08848938ce27
p955
F204.068625
tp956
a(Vd094b3a1-c638-4bcd-97b7-130d4a341693
p957
F247.876
tp958
a(V7afd0d40-c385-4762-82e3-74e14491c615
p959
F256.801
tp960
a(Va7777cfd-6c84-4cd8-a458-111d79ce87f5
p961
F313.573875
tp962
a(V3cbe1ecb-896f-48d3-948d-bc0c76dc2687
p963
F348.290625
tp964
a(V132d6ede-0573-4d50-9563-50099ebdbe4d
p965
F360.96
tp966
a(V65f4b027-23c7-4c07-81b7-e66d20d92dcf
p967
F369.893875
tp968
a(Vca4d789d-c3b7-418a-8cc7-436378daa3c9
p969
F379.115125
tp970
a(V97bdb44f-962c-45bf-8380-f9626ee00851
p971
F408.241625
tp972
a(Vf18772cb-ce76-4357-9d91-5aa2a57dd59e
p973
F440.6335
tp974
a(V32d1f914-ee6d-497e-9d88-5a6544f56fac
p975
F481.698
tp976
a(V36b455f9-4e27-4dc5-883d-b01654a42eb8
p977
F487.601625
tp978
a(V68787946-abf5-4dcb-bac4-1016f8a7f62c
p979
F532.062125
tp980
a(V89f21abd-ef27-4856-9553-dc0d194b0c7e
p981
F535.588625
tp982
a(Va082201d-99ac-43dd-bad6-71cb8cd8d44c
p983
F556.8
tp984
a(Vc863559a-5602-4dcd-a6a4-4921e51928b0
p985
F576.914375
tp986
a(V3102d6b8-fb28-4635-9421-3c554326ef52
p987
F588.74775
tp988
a(V18d13645-6a51-4483-b122-6402f633a69b
p989
F592.69225
tp990
a(V483390ea-5e4b-4ff7-93df-44ff27f6f66a
p991
F620.721625
tp992
a(V07acff63-0e38-4a94-878f-161ced44da06
p993
F631.693125
tp994
a(V2989acfe-ec56-45ec-8380-bfe5aedb3aa5
p995
F884.56
tp996
a(V547b05bb-4adb-4e78-83b9-93c0d3c1c9d6
p997
F902.24325
tp998
a(V0770e093-335b-429e-8351-07f26008c38f
p999
F976.7445
tp1000
a(V8ea50416-583b-4a7f-891c-dc21b1a3c2c9
p1001
F1182.453375
tp1002
a(V32806112-2104-4df2-972e-a527be20e82a
p1003
F1223.915125
tp1004
a(V50e35aa6-eada-4499-bcf1-d578aeb65b9c
p1005
F1316.231875
tp1006
a(V7c12e1e5-f5c9-4269-ba0c-4d36a5c71ca3
p1007
F1419.258875
tp1008
a(Vcf329be4-2426-453e-91f3-6288f7a57e34
p1009
F1464.26775
tp1010
a(V141ef94a-3149-482e-be3d-666cdc6740db
p1011
F1478.9225
tp1012
a(Vc435b2c7-1582-4a3a-b8d5-b6122cd9a824
p1013
F1652.95025
tp1014
a(V6fbf2d80-ada4-41aa-8baa-fb288619883e
p1015
F1763.526625
tp1016
a(Vd2ed8e13-d5d1-48a8-8ea2-da107e2363b3
p1017
F1905.893875
tp1018
a(V3527d689-1f90-4c6e-a6dc-ddfccf1f014f
p1019
F1946.72325
tp1020
a(Vfafd1a88-325d-4daa-999e-9dfdba4853ba
p1021
F2042.226875
tp1022
a(Va06b5a33-db7e-4ac3-9e47-9354a58446fb
p1023
F2045.205
tp1024
a(Vc34174b9-c3f5-4c91-974a-b389a4e9bd1a
p1025
F2046.302125
tp1026
a(Vec1af131-3404-4408-9504-e18734a7b112
p1027
F2061.5315
tp1028
a(Vc62aa13a-6e92-4669-a868-68de9115335a
p1029
F2136.058875
tp1030
a(V2b704475-69dd-4c04-981c-927b64e78c73
p1031
F2147.03025
tp1032
a(V38fe9f89-a94d-4da3-90da-03015e8e7e25
p1033
F2201.56
tp1034
a(V8618ff0c-555e-4f3c-90d5-0438aeae4659
p1035
F2309.79925
tp1036
a(V4f3c1b3d-24f2-466d-86c6-7a694eac559b
p1037
F2343.601625
tp1038
a(V21995ba7-0638-4fe1-9a4e-1673a7a4fa37
p1039
F2632.8555
tp1040
a(Vb7209cc2-88e5-464a-bea6-795e4ef455ea
p1041
F2675.278375
tp1042
a(V66388b2a-d7d5-44d1-8464-4b5eeff1af6a
p1043
F2848.47025
tp1044
a(Vcce8842d-65b6-42ca-a76a-6a81410bdaee
p1045
F3081.665375
tp1046
a(V7786af52-fc31-492d-9ed7-6b230644a303
p1047
F3114.39675
tp1048
a(V5e5933a3-e383-4f97-9af1-786f9e7bde7d
p1049
F3114.81475
tp1050
a(V9c7784e0-b808-466e-bd43-582b8ab4f8fb
p1051
F3161.144
tp1052
a(V4eb97bf9-2eaa-459c-b456-3a05876f304c
p1053
F3611.637625
tp1054
a(Vcf7acd46-da61-47c7-99aa-1de0c4ebc94c
p1055
F3629.79275
tp1056
a(V34edbdf2-4505-47af-b1cd-5d09aa97d49d
p1057
F3943.485125
tp1058
asVNa\u1e6dabhairavi
p1059
(lp1060
(Vac0181fb-25c6-4210-8b38-102b2396be1d
p1061
F1469.570625
tp1062
asVKamal\u0101man\u014dhari
p1063
(lp1064
(Vf93810ce-62d5-4866-af02-6a8928e3ee55
p1065
F221.361625
tp1066
a(V035ff5d0-5845-4d14-bea7-f3488fb5abad
p1067
F349.518375
tp1068
asVLav\u0101ngi
p1069
(lp1070
(V1b443119-9717-4edb-8383-a3fda2a98abc
p1071
F570.853875
tp1072
asVPu\u1e63palatika
p1073
(lp1074
(V45ea9da9-de68-4bf3-b1e8-dcc40ee2d135
p1075
F316.656375
tp1076
a(V0dd6de89-c66c-4d60-9a1f-33319b544441
p1077
F607.738875
tp1078
asVGamakakriy\u0101
p1079
(lp1080
(V34164309-59f7-46be-9de8-4a179629f5ef
p1081
F1732.455
tp1082
a(Vcf2577e8-d9d8-4da5-bbe3-de6140e8d5a3
p1083
F1746.886625
tp1084
a(V5f4565af-6751-4bfa-aa5f-1e92bab647e1
p1085
F2203.44
tp1086
asVM\u0101rgahind\u014d\u1e37a\u1e41
p1087
(lp1088
(V8aab81e8-a930-4e10-a685-06a607bb2891
p1089
F232.587375
tp1090
a(V6e99cfc6-b123-4311-87d4-41c7e31c5009
p1091
F300.84025
tp1092
a(Vb32ecd81-9727-4f1c-ac6d-5780a1992ff8
p1093
F313.678375
tp1094
asVMi\u015bra \u015bivaranjani
p1095
(lp1096
(Vf6965ed5-0bb7-491e-bdb4-952c3de0e149
p1097
F276.95025
tp1098
a(Vf076c9ac-4eb4-46e4-92f8-33c59194001a
p1099
F289.85475
tp1100
a(Va12c9baa-9127-4c0d-92ea-f6dda4ba6b4c
p1101
F304.509375
tp1102
a(V8255bd53-42b0-4dcd-9f2c-ef3c93b936bc
p1103
F342.857125
tp1104
asVCittaranjani
p1105
(lp1106
(Vd872ffdd-b4c4-40df-be2a-e257a34d56f0
p1107
F252.775
tp1108
asVC\u0101y\u0101tarangi\u1e47i
p1109
(lp1110
(V27d87ab2-9549-485b-ba72-b040e0dbf579
p1111
F220.604125
tp1112
a(V7c3b805b-1e91-4949-bd1e-a834a1ebf670
p1113
F504.137125
tp1114
asVPah\u0101\u1e0di
p1115
(lp1116
(V50c2fea1-d267-4506-a155-73bbefd5da27
p1117
F281.927625
tp1118
asVBh\u0101vapriya
p1119
(lp1120
(V9991d691-bbc5-4683-8b8c-e865b7392750
p1121
F179.905375
tp1122
a(V12d0b1e1-e789-4d0e-a7b0-6f889138e7d8
p1123
F319.0335
tp1124
asVKa\u1e37\u0101nidhi
p1125
(lp1126
(Vfb6bc3bc-849b-4ae6-a14c-bf82026fd1cf
p1127
F205.766625
tp1128
a(V9816c97f-0f47-43ea-a387-e03478117658
p1129
F211.9315
tp1130
asVN\u0101dan\u0101makriya
p1131
(lp1132
(V5f957e5f-c393-4105-a505-4af7f8050cd3
p1133
F85.25175
tp1134
a(Vbffde9df-d79d-4b9c-8276-08d5ca39daf7
p1135
F123.077
tp1136
a(V0822c90d-41b2-4650-89f4-ab66f980607e
p1137
F163.5005
tp1138
a(V57863e06-4075-471e-9538-4bc1c937a719
p1139
F167.5755
tp1140
a(Vc0bf3c60-20cc-4ac9-a01b-b30aed2817fd
p1141
F267.67675
tp1142
a(V85a19b2f-312d-45e1-a727-7e5b93f70167
p1143
F320.339625
tp1144
a(Vb958b2ab-b366-4065-a094-e8090508ada2
p1145
F386.573375
tp1146
a(V9dc06706-ab09-4bae-a0cd-635276b29214
p1147
F387.317625
tp1148
a(Vf7b52b7b-8da7-4ccc-a02b-f934a4b05ab6
p1149
F495.4645
tp1150
asVVandanadh\u0101ri\u1e47i
p1151
(lp1152
(Vb7057af2-a3b5-4104-a13a-d212c8534f8a
p1153
F270.55025
tp1154
asVVaku\u1e37\u0101bhara\u1e47a\u1e41
p1155
(lp1156
(Va4290ec3-6456-42eb-adca-bcde2f2d4a78
p1157
F230.844125
tp1158
a(Vdc72b5cc-ebb2-43a1-89ef-a3886c9e4e32
p1159
F763.66375
tp1160
a(V5d1b5366-0469-438e-8ca1-dbd808d0bf28
p1161
F1325.702375
tp1162
asVR\u0113vagupti
p1163
(lp1164
(V5ad1448b-ba95-4b2a-ab6b-3c24d463d4db
p1165
F650.866875
tp1166
asVSah\u0101n\u0101
p1167
(lp1168
(V028528cc-9b4f-44b7-afb2-5c778a24adcb
p1169
F247.92825
tp1170
a(V66326072-3926-43b0-81ae-66d41bebba16
p1171
F267.36325
tp1172
a(Vb21fdca6-c161-4d86-aae8-5157d41e4cfc
p1173
F279.013875
tp1174
a(Vd859fa0a-300d-4e53-b6bd-2366e12397e6
p1175
F308.94125
tp1176
a(V1d04eed5-b4b4-45d7-9103-3fa52cbd520d
p1177
F320.496375
tp1178
a(Vac2a95e1-25fb-4aaf-bd6c-1c45581543cd
p1179
F337.8035
tp1180
a(Vb67fb65d-29cb-424a-8301-e1ea453733de
p1181
F349.309375
tp1182
a(V8b446b15-3c62-4a6b-8104-e6bdaa274612
p1183
F394.18775
tp1184
a(Vff533a56-6565-4151-b343-b12e1a7bd5fc
p1185
F421.564125
tp1186
a(V0383cf37-4f4e-45e4-99f1-32f19bf1156e
p1187
F469.15925
tp1188
a(V46d2fe1f-87e4-47fc-a665-cdb680dae535
p1189
F537.077625
tp1190
a(Vf4d9c392-8347-4679-b6bf-1955dae5e2d4
p1191
F672.626875
tp1192
a(Vff769ac1-cc9f-4ff2-a5f5-1392d8f885e4
p1193
F734.093125
tp1194
a(V7c2e1332-e81f-472c-84f9-882e1201f440
p1195
F1174.96
tp1196
a(V7bd17853-6bc5-456e-a7f0-87ad6dd64087
p1197
F1531.062875
tp1198
a(V9788f26b-57f2-4a45-aa20-db1030129f3b
p1199
F1566.56325
tp1200
a(V8b065998-c988-4c70-bf33-cb3428ce2d25
p1201
F1571.474375
tp1202
asVDhana\u015br\u012b
p1203
(lp1204
(V6df88f65-679c-4992-8fcb-91b998d88c89
p1205
F177.5805
tp1206
a(V7640bec6-32bb-4087-b335-bd239842883b
p1207
F215.954375
tp1208
a(V610930d0-de21-4577-bb83-c066a9214c1e
p1209
F218.958375
tp1210
a(V4021ed6d-92d8-4cc9-b800-2ae5385ea630
p1211
F240.875125
tp1212
a(V501f50aa-891c-4ab5-9dca-1fac271a33ae
p1213
F251.853375
tp1214
a(Vd0211d52-e8d1-452d-84c5-ff16495f2f6b
p1215
F305.136375
tp1216
a(V882515a6-5645-4e71-be7d-fcf20a96d79c
p1217
F379.324125
tp1218
a(Vf78e7be3-4a70-486a-bd37-fc353019de89
p1219
F438.622125
tp1220
asVSun\u0101davin\u014ddini
p1221
(lp1222
(Vba0c4305-7839-4934-83d5-7bcd4909f50b
p1223
F425.822125
tp1224
a(V8c2e7a2d-0084-419d-9920-1b75f0a8e06a
p1225
F429.296375
tp1226
a(V09418ef4-7d18-4ab3-b350-c72fcb5e87c4
p1227
F616.15025
tp1228
a(V127b94ac-8e94-447b-b840-5082d47fc468
p1229
F1771.729
tp1230
asVHind\u014d\u1e37a\u1e41
p1231
(lp1232
(V8cdaa7da-159c-4109-8811-53b8c274d760
p1233
F188.996
tp1234
a(Vedb1b5d3-1ff5-47fd-bc8d-6710e42c4ef9
p1235
F266.60575
tp1236
a(V3d4c4c75-0630-4e82-964b-b9c44eb0250a
p1237
F282.044125
tp1238
a(V8d420cef-3437-4f8f-b110-007cd3328cfb
p1239
F293.538
tp1240
a(V6665b068-7019-4acb-afe9-029dd689662a
p1241
F321.149375
tp1242
a(V08b8b8e6-a5c0-4ff8-804e-b24f6aa4fbd8
p1243
F328.594375
tp1244
a(V93f38e28-f411-4b06-9494-91232649a635
p1245
F332.526875
tp1246
a(Ve509dd9f-4ee7-4310-afdb-e2d5711713f9
p1247
F369.031875
tp1248
a(V97a01a63-21d5-4eab-b23b-2507feff2a81
p1249
F414.485
tp1250
a(V372c5111-5b37-49f9-a734-6cd14ac24725
p1251
F440.37225
tp1252
a(Vffadfd1e-b81f-45ae-8c5d-6eecd98de388
p1253
F540.52575
tp1254
a(Vd9535f2a-556c-47c6-8186-cd1324ded211
p1255
F686.916
tp1256
a(Vad39c385-246d-4804-856a-0bb92d89526d
p1257
F733.675125
tp1258
a(V401cda01-c559-4889-b56f-c618fb907a09
p1259
F776.306875
tp1260
a(Vada47154-6212-4e60-90de-80dd88850bfc
p1261
F860.76075
tp1262
a(V96617d03-8864-42b5-90bd-59c9a397999c
p1263
F876.12075
tp1264
a(Vf0a898aa-3a22-4e73-aa51-f25e2eaa17a0
p1265
F1106.729875
tp1266
a(V3b78dbfc-58bc-4e7c-aae2-4558f7c36df1
p1267
F1121.671875
tp1268
a(V1f97eafa-aa10-48d1-8739-3f5aed90a650
p1269
F1149.570625
tp1270
a(V5d2bc41c-b45a-40cf-b779-9d00ac790066
p1271
F1162.161625
tp1272
a(Vf0fa5971-3acd-46fd-9d0e-0400f8671d2f
p1273
F1297.658875
tp1274
a(V397dfdc7-25e6-41c4-999b-2ac0935e7df6
p1275
F1542.97475
tp1276
a(V8641f4aa-1ff7-4ab0-a018-bcfb2536db92
p1277
F1610.9715
tp1278
a(Ve1dd404b-3a17-4e48-9222-b0d8abcdd764
p1279
F1615.151
tp1280
a(V1e6577fa-ba58-4325-9c18-661a6aced87a
p1281
F1645.636
tp1282
a(Vabcb0e4e-5e36-4726-9c98-79e0319362af
p1283
F1709.16575
tp1284
a(V2333036b-56e6-4b94-877c-a84f72440add
p1285
F1867.493875
tp1286
asVV\u0101caspati
p1287
(lp1288
(Vcaffb17e-4939-4cb3-9824-2bbc1689956c
p1289
F187.324125
tp1290
a(Va00bae70-ca3a-47f5-ba82-88522af77cf8
p1291
F206.8115
tp1292
a(V59eb963d-0e6f-49d8-8982-435481988f08
p1293
F259.004125
tp1294
a(Vbce3ce6d-eb67-4065-98ec-bbdbfffeeab0
p1295
F310.778875
tp1296
a(V9c5e71c9-77aa-41dd-a7f2-4259faf8d7be
p1297
F470.622125
tp1298
a(Ve84d82a2-636c-4270-867d-f79dc20bb371
p1299
F646.24325
tp1300
a(Vd1ccecc6-ee67-47e4-9457-e9ba19831986
p1301
F1213.80575
tp1302
a(V0bf58eb7-499b-4dec-abe5-b8bd243762f4
p1303
F1568.339625
tp1304
a(Ve8ab698b-6dac-4d28-a68d-0490edc2ac41
p1305
F1603.970625
tp1306
a(V32901ae1-002d-4e55-99b8-2bf742d23521
p1307
F1869.087375
tp1308
a(Va6a56df0-2031-46a8-bd00-0664f4bc9639
p1309
F2310.791875
tp1310
a(Ve001d505-ce6d-4e74-9178-cbbb84753982
p1311
F3445.106875
tp1312
asVK\u0113d\u0101ragau\u1e37a
p1313
(lp1314
(V829ee0c7-e7c8-4e3b-abe3-2df5f3f7da7d
p1315
F175.569
tp1316
a(V73ecd4a2-fb9d-4c4d-a7c6-12490e6b1d3f
p1317
F198.773375
tp1318
a(V55ef993a-1671-4c49-818c-7868828567b3
p1319
F254.302125
tp1320
a(V26f0ffe7-a1d2-4644-96c2-02d6f17ddcbb
p1321
F292.075125
tp1322
a(V996e9edf-ea0b-4ff6-a062-3cc7f563b56e
p1323
F293.982125
tp1324
a(Vcc4199f2-ecf3-4d93-b628-65f2caacc6f8
p1325
F590.7995
tp1326
a(V71d1b4f4-d8d9-43f3-a901-672e9b438ebd
p1327
F1101.714375
tp1328
a(Va3dc0349-d629-4ccf-88be-4b4e9bedb104
p1329
F1153.28
tp1330
a(Ve04099ec-199a-4c5e-ac5f-5fac19759add
p1331
F1421.40075
tp1332
a(Ve2548ebd-d52d-4343-b78d-fa32e337362d
p1333
F1737.247375
tp1334
a(V6cbaa215-c8ac-416c-bbc7-2a04bf277843
p1335
F2357.6555
tp1336
a(V6c860efd-82e8-4df5-8c54-ec212edeb888
p1337
F2382.14275
tp1338
a(V8ee9abee-f169-4b75-a742-11072917b8ed
p1339
F2768.431
tp1340
asVHuss\u0113n\u012b
p1341
(lp1342
(V6c8e13df-972a-4385-9a97-097f75c80576
p1343
F215.666875
tp1344
a(V5c6025b5-9d32-4e99-85b5-b354837b90d7
p1345
F236.773875
tp1346
a(Vf6b18423-2401-439b-b2f6-6c0156a5a05c
p1347
F256.078375
tp1348
a(V1b522203-3dc5-4348-8bdb-3a7f3ac2a485
p1349
F309.60325
tp1350
a(V21b9415b-68a2-4d30-a9e7-b630922bccd9
p1351
F323.55275
tp1352
a(Vef263b32-e247-4683-a9b6-e09e77c79c9b
p1353
F356.049
tp1354
a(Vea98da0e-e968-40f0-8a21-634bd9f7e343
p1355
F443.846625
tp1356
a(V26f34356-1288-4154-ada4-479cd8d82aca
p1357
F447.8955
tp1358
a(V033599e7-f096-4eff-b9e6-82b988150a79
p1359
F453.134125
tp1360
asVVasanta
p1361
(lp1362
(V6ac759b8-9908-4a05-af9a-8dbc759fa4d9
p1363
F136.15025
tp1364
a(V9e6e3ddd-84e0-4bcf-9b0c-6b15875d8e3b
p1365
F198.00825
tp1366
a(Vb0b550e1-3379-4cfe-a69c-5e38da13dee3
p1367
F203.6245
tp1368
a(V6038edec-0d0b-4a60-b3e8-253896c17900
p1369
F256.078375
tp1370
a(V9bec84eb-1d5d-4d2e-97af-1818ea7b5511
p1371
F271.2555
tp1372
a(Vf39e2ca6-93ad-4760-8f22-ed922f0dfd73
p1373
F282.436
tp1374
a(V559b19c7-2d30-47db-8aab-6e4448d867fb
p1375
F299.064
tp1376
a(Vc45f94a1-eaa2-4196-bb44-85590f0b4ae6
p1377
F313.809
tp1378
a(Ved05e952-6274-43ca-a69b-bb6ee2b248c5
p1379
F317.622875
tp1380
a(V1d0eecb2-bb9f-4741-9243-7f434d0c7509
p1381
F320.26125
tp1382
a(Ved32128d-0d76-406d-b027-d739d7175565
p1383
F342.909375
tp1384
a(V5f3a218e-3635-4277-bb88-a11491439cfa
p1385
F397.845
tp1386
a(Vebcf821c-c86a-4fd1-a2e9-9fdb2be727a3
p1387
F476.0555
tp1388
a(V99faa7cf-f72f-4f05-b4b6-7a6ee9484be8
p1389
F477.52
tp1390
a(V1031a841-0a22-428f-8f23-a103227c5aac
p1391
F486.582875
tp1392
a(V9299ad2d-5be7-4eab-8a18-80409f3ce2a9
p1393
F663.954375
tp1394
a(V144c2819-edfc-448e-8a40-da5f8c6d98c7
p1395
F681.2735
tp1396
a(V90fdb2a1-d75b-4101-a152-82905f0551c3
p1397
F962.16825
tp1398
a(Vabb82eab-6f5e-42d9-a4c1-6620463e9e46
p1399
F1695.529875
tp1400
asVSimh\u0113ndra madhyama\u1e41
p1401
(lp1402
(V42779e33-1af3-48a8-9e68-8bc41b2c7587
p1403
F413.04825
tp1404
a(V2687c370-fa8a-4988-86d1-e58e3d095c45
p1405
F433.266875
tp1406
a(V6de4f1c8-a32c-4ee0-9220-9108dcfdf67f
p1407
F666.1225
tp1408
a(Vd9a11b6b-6155-4e2b-810b-6771022d120d
p1409
F871.262125
tp1410
a(V55f8214c-3362-4b1b-a710-364077ad2cc4
p1411
F1274.853875
tp1412
a(Ve157a3da-830b-46ac-b6f9-f7651efe92e2
p1413
F1359.83025
tp1414
a(V72dfd4d7-2792-415f-9984-fa22e4d314c2
p1415
F1757.15275
tp1416
a(V7796536d-1f8f-4d50-ae65-7aa6efa2e34c
p1417
F2080.653125
tp1418
a(Vd030123a-ab65-40ea-85a6-36b98da459f7
p1419
F2107.506875
tp1420
a(Ve242555f-bb5c-404d-a2ac-7f1b840114ee
p1421
F2238.589375
tp1422
a(V4d97c91b-3962-4e25-9775-96268a4a72cd
p1423
F2612.297125
tp1424
a(Vad6e0b1b-d578-4e92-9623-28645e359208
p1425
F2755.970625
tp1426
a(V2badb85a-4f7c-4933-9910-ff01a3968d08
p1427
F3608.490875
tp1428
asVR\u0101g\u0113\u015br\u012b
p1429
(lp1430
(Vba5ed7dd-e96d-432e-b74d-063488391e16
p1431
F280.868625
tp1432
a(V71217d4e-7420-4b04-82ad-869364c818db
p1433
F287.29475
tp1434
asVKed\u0101ra\u1e41
p1435
(lp1436
(V907d2598-2c2a-48d3-894a-7d032b8d542c
p1437
F308.271
tp1438
a(V0229612b-f8e8-4efd-97f3-1503935088e5
p1439
F359.706125
tp1440
a(Va86e1f20-6685-4dd0-b4a7-04b1eb3cf837
p1441
F364.64325
tp1442
a(Vc621c794-1977-4b96-b06e-f0363b204b8d
p1443
F372.610625
tp1444
a(V260b153d-fa40-4af2-8d17-81cd872f68fc
p1445
F502.308625
tp1446
a(Vc7384926-2948-4edd-8c0b-9d0cda58e6d4
p1447
F773.343125
tp1448
a(V09983b16-fc3e-47fd-b13f-4d51d8e0085d
p1449
F1255.18375
tp1450
asVLat\u0101ngi
p1451
(lp1452
(V9899b06a-13d4-49b5-b0d1-58868daa657f
p1453
F315.428625
tp1454
a(V412e0f61-f22d-47f9-81c2-ebb17be7a339
p1455
F766.302125
tp1456
a(Vfa499e6d-caa1-4ed4-b553-bfe640129e19
p1457
F785.3715
tp1458
a(V6e2b88ce-f673-4508-b22f-a540844abf9b
p1459
F1135.542875
tp1460
a(Vfb6aae72-04e8-45dd-976f-911821203173
p1461
F1523.97175
tp1462
asVD\u0113vag\u0101ndh\u0101ri
p1463
(lp1464
(V4a527c12-a289-4455-adae-7763b8c06f60
p1465
F224.391875
tp1466
a(V9bb4aa9f-1e14-4193-876d-261a4d8f59f4
p1467
F238.02775
tp1468
a(Vc07e9a51-9fb9-4d5d-bd88-ce12fb74a7aa
p1469
F302.512125
tp1470
a(V5af96daf-cca1-412d-bcac-7014f6629ef5
p1471
F327.39275
tp1472
a(Ve935b811-e08e-4512-911b-a720ffde5a3c
p1473
F421.198375
tp1474
a(V2e648aa2-2172-4ab8-b43a-485213ca4d5f
p1475
F433.50675
tp1476
a(Vc9f07bd4-e830-4a5c-8de4-df2952858086
p1477
F437.0025
tp1478
a(Ve554f08b-8af2-4336-a107-32e8b8d2c591
p1479
F472.241625
tp1480
a(V0a086f80-e571-4bdf-8396-1948cbb1e8a0
p1481
F550.582875
tp1482
a(Vfb839656-ac38-44a3-81d7-babaafd864cc
p1483
F560.431
tp1484
a(Vb72e0c1f-3d56-425e-a528-5e8275e1e49d
p1485
F760.502875
tp1486
a(V9163a2a8-333e-45d6-b182-c8cd06ce582c
p1487
F854.7005
tp1488
a(V33d38621-7d7a-4897-9bf4-60c33c6574ae
p1489
F887.40575
tp1490
a(V5269b678-e274-4732-a906-4b17607df9c3
p1491
F974.785375
tp1492
a(Vdbca1590-b4d7-469a-93df-ec427bddad60
p1493
F1980.969875
tp1494
asVSarasvat\u012b man\u014dhari
p1495
(lp1496
(V84e9c525-ba92-4275-ad12-8640b4977783
p1497
F158.04075
tp1498
a(V233382df-54b0-4eb4-8855-38a0e8f96f70
p1499
F454.779875
tp1500
a(Vbfc87383-2f9c-4229-9501-90b03e94035f
p1501
F958.56325
tp1502
a(Vc0c3938c-be63-41c5-9b76-8dc90075ede3
p1503
F1376.15675
tp1504
asVN\u012bl\u0101\u1e41bari
p1505
(lp1506
(V45ac02f9-e046-495d-86c7-deac430ca977
p1507
F271.0205
tp1508
a(Va0f50392-60df-4833-ae06-f7c81929fc8f
p1509
F301.644625
tp1510
a(V18f23a9b-4440-4270-b284-dae887a91b1a
p1511
F319.39925
tp1512
a(V28a81ca8-ce40-401e-8c90-0af9ca1fd42a
p1513
F332.51275
tp1514
a(Vc956d1f5-190f-484d-9693-99139b3cd032
p1515
F500.41575
tp1516
a(V2cad24a9-8742-49d7-bd2f-1bc2c621a078
p1517
F517.72075
tp1518
a(V1479760f-8124-49b6-a28e-b43ed338f5e9
p1519
F552.124125
tp1520
asVSindhumand\u0101ri
p1521
(lp1522
(V97a32989-f755-47b6-9a40-92a22665ccce
p1523
F125.231
tp1524
a(Vd5f68142-1cdc-40ca-b2a0-95ec57904116
p1525
F131.410125
tp1526
asVR\u0101gam\u0101lika
p1527
(lp1528
(V56edb5f9-e9b8-4ec4-bc5b-b4f4afbff83d
p1529
F151.1445
tp1530
a(Ve27128e2-a5fb-4f29-a8f8-0a74759b446a
p1531
F203.859625
tp1532
a(Ve458f3c6-b2e1-47f1-9c20-ba1c188a1615
p1533
F205.68825
tp1534
a(V9ed84a1b-b05b-40f0-bab0-2a8225d5a8df
p1535
F223.921625
tp1536
a(V20eee4a0-4f34-4930-a6a3-a53bf3bde666
p1537
F236.173125
tp1538
a(Vd2644d0e-dd99-4174-9447-dd67db2554a7
p1539
F243.409
tp1540
a(V63030cc1-1265-40a8-93a0-b5188a63fac5
p1541
F257.567375
tp1542
a(V13a3fbbc-16bc-404c-8b03-fdfdb036edd5
p1543
F262.853375
tp1544
a(Vf35d696a-1f6f-481c-9b1b-10294dc890f5
p1545
F265.613125
tp1546
a(V78d42de5-a924-4b07-a723-cfabc4c896a1
p1547
F281.78675
tp1548
a(Vd001e6bf-625c-47fc-beb9-2a1fa72a8cab
p1549
F287.099875
tp1550
a(Veb9bd4f8-f829-41b1-8f50-ab62d356be87
p1551
F290.377125
tp1552
a(Ve9a36616-091e-4ec7-b046-39e53ef41cf0
p1553
F292.806625
tp1554
a(V8f322cb4-af44-4db6-a007-4ce002b98dcb
p1555
F297.769875
tp1556
a(Vc77ceb0b-50d5-4b53-9550-cb549aa3ce30
p1557
F305.76325
tp1558
a(V8b026b2c-f627-4689-b4c9-7e1c14c2ca02
p1559
F316.435375
tp1560
a(Ve889f674-c74f-4831-ae32-2b399db9bf56
p1561
F316.578
tp1562
a(V2d7b9598-3c82-4a74-a81c-b626bad3253e
p1563
F318.249875
tp1564
a(Vf320c1d1-f2eb-414c-b590-c85e71b61c5e
p1565
F320.078375
tp1566
a(V4f77b24e-38c0-4c20-872e-391ec53e4643
p1567
F326.0605
tp1568
a(Va8a954a3-937e-47ec-8a5c-58b2439cf0f3
p1569
F338.677625
tp1570
a(Vd9f49260-f817-41b7-afc4-b9682639c735
p1571
F340.506125
tp1572
a(Vd650a84d-a515-4a29-9c9b-ed4b8783c6d0
p1573
F353.071
tp1574
a(V22bd5f33-500f-4479-a66a-290718f68498
p1575
F357.51175
tp1576
a(Vc58ef05a-7a00-4ad9-8d11-a88e1a2772a5
p1577
F360.45175
tp1578
a(Vf1b059e9-b9ee-4825-aaae-cfc13b35e477
p1579
F374.569875
tp1580
a(Vaf840aff-0c82-46b1-9881-bc36f50319f9
p1581
F375.5625
tp1582
a(V355a5289-9dd5-4a86-987a-3876fd74eb8e
p1583
F376.37225
tp1584
a(V3956ef1f-2cb0-4e4b-becb-533a63d18017
p1585
F376.517
tp1586
a(V0293ccd1-ca70-49cc-87b0-e8c6c21c23d8
p1587
F377.991875
tp1588
a(V8c52fdfd-5969-4e02-b054-7c6e7a03299b
p1589
F382.66775
tp1590
a(V76f1035e-662f-495e-99fc-94b62fdc002f
p1591
F386.116
tp1592
a(V182d374b-5000-4915-9011-d2000254effc
p1593
F394.449
tp1594
a(Vf7302ca8-3f98-4f1e-971a-381237006e22
p1595
F401.52825
tp1596
a(Vf3a9c6ba-5218-4c4c-97f1-43182054d9d9
p1597
F402.70375
tp1598
a(Vb468b4e9-61d7-4641-80bb-ea499d8624d1
p1599
F413.649
tp1600
a(Vaf27c037-4002-4308-bdf9-9be9f474c0f4
p1601
F421.668625
tp1602
a(Vdb598906-31ae-4e01-95eb-b90090abc2c1
p1603
F421.970125
tp1604
a(V13a322e2-4a03-46bb-a7af-48864b10794d
p1605
F425.95275
tp1606
a(V4c519d38-2ab7-48ea-826a-a4897b53665c
p1607
F453.956
tp1608
a(Vfc5910bc-c3a9-4a01-b382-d79063396c34
p1609
F457.6915
tp1610
a(Vd740142e-9c1a-4bad-a9f0-cb5e771ceb6f
p1611
F474.27925
tp1612
a(V865fa3b6-b356-4635-9e06-849f26da1d68
p1613
F479.869375
tp1614
a(V97b0a0e9-d529-448b-adee-cc3d5beb529a
p1615
F481.071
tp1616
a(Vee83ea0c-4e56-43bc-8afc-541db674601a
p1617
F482.429375
tp1618
a(Vc872989e-4edd-4509-912b-f228198245f7
p1619
F488.173375
tp1620
a(Vbfc861f2-1d5c-476b-9d74-087c7c157a4c
p1621
F494.498
tp1622
a(V64415576-f975-4961-96c8-75c40e8ad4fe
p1623
F499.87925
tp1624
a(Vfd0b4e9e-31a0-4384-af13-237ee4398a9b
p1625
F530.573125
tp1626
a(V8d27fbc7-188a-43c0-97c0-2ac5c8280796
p1627
F571.6115
tp1628
a(V857ea263-d38e-4cab-a18b-3dfc50264f0e
p1629
F612.388625
tp1630
a(Vc2330fc5-c7ef-4cdd-b06e-afc3ab067b10
p1631
F619.076
tp1632
a(Vbc6ec279-6953-4733-b3ec-b76b47fbc225
p1633
F663.0
tp1634
a(V31b45711-4eff-46c5-9b47-f4ab0480634d
p1635
F694.98775
tp1636
a(V04ded53f-38ce-4ba8-9314-b96839c14f73
p1637
F702.053375
tp1638
a(V153fcf14-072f-4807-8237-8cca58e04dd7
p1639
F709.59025
tp1640
a(Vbc13cc92-a6f0-4999-9f4e-b6d1a2d1f2a8
p1641
F739.866125
tp1642
a(V6f8dcdeb-50d1-40b8-a1d3-419ca409da06
p1643
F740.231875
tp1644
a(Va4ccb003-df39-4d49-b9c6-1ab3706fbf08
p1645
F746.057125
tp1646
a(Vc0cc9472-e4d0-4234-9e46-16ecdde8d9ce
p1647
F762.1105
tp1648
a(V598cc9ec-da41-4a01-b49f-4d074d87edf3
p1649
F814.524125
tp1650
a(Vd21d2e1d-f3e3-4ca8-8713-4003ccd74adc
p1651
F816.0915
tp1652
a(V402f49e2-5957-4b24-9229-0c94b0c4c07d
p1653
F816.326625
tp1654
a(V5a803b78-28d3-49df-bba5-6d59d0c71118
p1655
F872.04575
tp1656
a(Ve1b31727-f7d8-496b-bbd2-9abf2f9b01a5
p1657
F1355.12825
tp1658
a(V58062cd6-2679-4bbd-a0d3-7c8fe6c46c18
p1659
F1475.474375
tp1660
a(V5803884c-79fc-471e-ba94-a948d758ab40
p1661
F1988.049
tp1662
a(V4080208b-84fb-47e1-a2e9-fdfcc062d047
p1663
F2341.38125
tp1664
asVSucaritra
p1665
(lp1666
(V18c72392-b1c2-4ba5-a908-0c3251886e20
p1667
F356.075125
tp1668
a(V26ff1e93-2c1b-47dc-b40a-7f64504232a0
p1669
F734.185625
tp1670
asV\u015ar\u012branjani
p1671
(lp1672
(Vcb21529f-d90a-4edd-9944-1e73168d188c
p1673
F264.28075
tp1674
a(V47099770-87c1-4810-a8d7-d2e51906fc10
p1675
F304.810875
tp1676
a(V9f5a5452-14cb-4af0-9289-4833854ee60d
p1677
F309.330125
tp1678
a(V15cd462a-08c2-4341-aa2e-061711712fcb
p1679
F313.16
tp1680
a(V8be1183e-71b2-418d-9ea0-c7e4e3ffa3a4
p1681
F328.306875
tp1682
a(V00e1f7f2-2fc5-4cde-9c94-c12bc4166d32
p1683
F354.089875
tp1684
a(Va899e45e-b7ba-40d3-be00-fe4f35351f09
p1685
F423.07925
tp1686
a(V66ce1a1f-0880-4c6c-b83b-0277a14ab06c
p1687
F510.354375
tp1688
a(V5348e65d-975b-47b0-9517-8c652477dc04
p1689
F524.653375
tp1690
a(Vd3fe932f-76c7-4efb-a4b7-c59b9f77abbe
p1691
F537.391
tp1692
a(V7f27f2a1-9fc9-4985-9110-7d28284a577c
p1693
F653.296375
tp1694
a(V949554d7-6eca-43f6-8469-7fb9aa5ae426
p1695
F729.6
tp1696
a(V157f6a20-1739-41dd-a081-40063ed2d8ea
p1697
F753.893875
tp1698
a(Vfe51dc11-c10d-42a6-a198-df4b7975c4af
p1699
F832.60075
tp1700
a(V88d8196a-123a-4306-9856-4ce3faca14fc
p1701
F873.299625
tp1702
a(V2a1600a4-e130-4f86-bb19-08a27a4c8b5d
p1703
F1082.7755
tp1704
asVBau\u1e37i
p1705
(lp1706
(V33d25560-ef4c-48e8-b723-f244c87427a3
p1707
F184.8425
tp1708
a(V049d9e8f-a34c-4da7-aa7d-617584c5c461
p1709
F223.556
tp1710
a(V9e0b628e-e237-4fca-9556-6a6e44bac774
p1711
F249.86125
tp1712
a(V7d62236e-c686-4a77-a149-23871f3769ce
p1713
F327.157625
tp1714
a(V5e403a22-b840-4f0d-8f52-b367a89469f7
p1715
F412.604125
tp1716
a(V1b14ae32-f7d2-4435-9a73-84972e8075d8
p1717
F635.167375
tp1718
asVK\u0101\u1e41bh\u014dji
p1719
(lp1720
(Vfea29da7-6bea-4a86-862c-7d91c366ea12
p1721
F310.36075
tp1722
a(Ve64f8a13-4e50-4e9d-be43-60f07c43e871
p1723
F392.35925
tp1724
a(Vf6c659e6-abbf-4eb8-aacb-105056d7b47f
p1725
F416.966625
tp1726
a(V12a4b893-f2fe-4c67-ad98-7c9e813ab101
p1727
F464.0915
tp1728
a(Veae3b5a2-e96e-479f-9ded-45a9d05f9c30
p1729
F472.79025
tp1730
a(Vb821486b-b734-4c8e-b876-ccb6519d121f
p1731
F502.517625
tp1732
a(V84d21e0d-60c9-4608-a36c-61020e560652
p1733
F609.201625
tp1734
a(Vf1af2237-1bf6-4f84-9e1a-2b7577c17625
p1735
F629.6555
tp1736
a(V93ec5381-1ff3-4f57-a170-1ea0e0109eff
p1737
F659.017125
tp1738
a(Vb70551f9-ec52-4db1-a0db-4ae81fd201b8
p1739
F716.95675
tp1740
a(V958dbe4f-d910-425b-91de-3125f08a0a6c
p1741
F802.690625
tp1742
a(V1eb34c3e-fc59-460f-972b-7a47051863c4
p1743
F851.24
tp1744
a(V323ff36b-db5c-4d91-a33a-239a944810e2
p1745
F938.005
tp1746
a(V8ecf5ec2-d328-469a-bef1-51abaa5d3325
p1747
F1440.418
tp1748
a(V2bade8d8-1cfa-4076-9329-98f7cacc65a0
p1749
F1785.286625
tp1750
a(V6f0a54e1-4dc0-4b3e-9482-94670862d8bf
p1751
F1794.6645
tp1752
a(Vd3492a82-5cfe-467b-975d-6e9d307fb887
p1753
F2100.22675
tp1754
a(V1d99a413-bc0a-430d-9587-410932113eaf
p1755
F2569.195125
tp1756
a(Vba04f4c1-28cb-4e22-b6c8-cb949426ad0b
p1757
F2577.176625
tp1758
a(V28bbe763-865b-4dd8-9e47-3b74919e945c
p1759
F2598.426125
tp1760
a(V86830147-88b5-4cb3-9d55-f776b68e2fd7
p1761
F2799.386125
tp1762
a(V229ba59d-dba4-48b1-bb36-7f53d883446b
p1763
F2820.96325
tp1764
a(V11a68967-0666-4606-bbb5-3ab805d09461
p1765
F3018.684125
tp1766
a(V0ba5d4d1-037b-4dcc-ae0c-c832a7681b89
p1767
F3198.485
tp1768
a(V728b5ad7-5348-4d24-bcf9-a6e6223ff7db
p1769
F3536.065375
tp1770
a(V1520c037-248b-46c8-8eab-65e31d3f3b08
p1771
F3783.80225
tp1772
asVRavicandrika
p1773
(lp1774
(V5e3683e4-69ef-43fd-98db-63c0897b49d7
p1775
F245.969
tp1776
a(V0aa80ded-f279-4a11-b634-36ac54ed4b7b
p1777
F355.2915
tp1778
a(V514ce3c2-a429-41ab-950b-ec907277c4c4
p1779
F389.982125
tp1780
a(Vbbdd8e96-a35e-40f1-b14f-d9391c6bcd64
p1781
F401.266875
tp1782
asVM\u014dhan ka\u1e37y\u0101\u1e47i
p1783
(lp1784
(V8e173ba9-11b3-4205-a646-a8ffd01ead1f
p1785
F289.071
tp1786
a(V733e6ac5-253e-4c5c-8dc0-4a1539eaecde
p1787
F302.34125
tp1788
a(V19d584bb-0752-4627-9172-ab0a6f5a6e62
p1789
F307.696375
tp1790
a(V91b6703e-13d6-4e7b-9f0f-bffab51dbcff
p1791
F353.1755
tp1792
a(V68972871-65bb-46de-8aab-5b33501a5c75
p1793
F384.1045
tp1794
a(V514be5bc-b67b-4fa5-8170-ce3315c693ca
p1795
F564.506125
tp1796
a(V5c6eb984-4268-4903-b0a0-bf18f1eb71a9
p1797
F746.449
tp1798
a(V5c0a2dc6-6bff-48fe-a50f-5504821c91f3
p1799
F993.906875
tp1800
asVC\u0101l\u0101n\u0101\u1e6da
p1801
(lp1802
(V5fe69ddb-2425-46ee-8504-f0f1d4fffc19
p1803
F347.1935
tp1804
a(Vbfc8b08a-f0e2-4965-9db4-18c426faa7cb
p1805
F354.27275
tp1806
a(Vde9f1c7c-fd4a-4db4-a4ea-0878249ae563
p1807
F372.3755
tp1808
a(V87746cd2-e5d8-4591-82f0-10d6e29994c4
p1809
F586.213875
tp1810
a(V0c42d8fb-ff45-4a28-88c6-32a9b9c1bb99
p1811
F586.213875
tp1812
a(Vb5e49f9f-0ec6-45cc-9830-2afc88402f2d
p1813
F598.54375
tp1814
asVHarik\u0101mbh\u014dji
p1815
(lp1816
(Vf5aa3607-01e4-4359-9b8a-31bd9b2275c6
p1817
F163.2915
tp1818
a(V9154c0c3-0705-4198-a404-974f3e435453
p1819
F339.069375
tp1820
a(V69dba0e8-8a49-4084-a58b-18101239df69
p1821
F396.0305
tp1822
a(Va3a507b9-658f-402e-b11f-4ad4f90f2fa8
p1823
F478.693875
tp1824
a(Vecc0ce0a-cb81-497e-9d10-f2b58dc71702
p1825
F497.63275
tp1826
a(V871f3954-7bfd-4257-9bb1-c0688bfad6bf
p1827
F547.761625
tp1828
a(V6b2d0b03-d7c9-4171-bc9b-f0b0568a9cbc
p1829
F563.121625
tp1830
a(V288a73f9-c6eb-4425-a7f2-d20e0b607e84
p1831
F649.404125
tp1832
a(V6fc959d4-fc37-4289-8257-32585a2abd4b
p1833
F675.7355
tp1834
a(V442ada5c-0c40-4b37-8c59-0cc647ac1973
p1835
F721.841625
tp1836
a(V51deb148-402e-4586-badb-4b70481183b3
p1837
F826.685125
tp1838
a(V7b9c90f9-726d-45ef-b5fc-4424732265b4
p1839
F837.17225
tp1840
a(Va8e1d265-328e-4b01-b4d1-bc643f5e2ca2
p1841
F862.22675
tp1842
a(Va1077360-2759-4908-bf7f-d93aa11975da
p1843
F900.127375
tp1844
a(Ve25f2d57-53c9-495e-b805-c1d2c5d7c3a8
p1845
F1064.6205
tp1846
a(V60e79cac-afd0-4b3f-ab90-6c925583a60c
p1847
F1139.382875
tp1848
a(V170970da-a19a-462d-8dae-4ece614f2780
p1849
F1277.49225
tp1850
a(Vc482f6d1-20fe-4ea8-89f6-c02624d72c86
p1851
F1675.50675
tp1852
a(V06621248-2527-4295-ba08-fba2e7f086ca
p1853
F2073.86125
tp1854
a(Ve3f8bf6d-3cae-4036-a625-d9b8dacef5dc
p1855
F2292.271
tp1856
a(Ve7776320-8766-4568-9b08-05369bf2ad64
p1857
F2629.773125
tp1858
a(V9e6773ef-52e6-45b7-bfe9-33b4fffe5bc9
p1859
F3022.289
tp1860
asVKanna\u1e0da gaula
p1861
(lp1862
(V223f1bf6-b502-4e21-a128-9d04d65427f3
p1863
F287.921625
tp1864
a(V9adcd67b-85ac-4128-a839-8ef2f6bc1767
p1865
F325.27675
tp1866
a(V84f9c108-2d40-49e0-805f-878fe56712fe
p1867
F391.72
tp1868
a(V08ea0011-2c06-437c-8061-5356d1c49fbf
p1869
F713.404125
tp1870
a(V3819877a-c50a-4da3-8769-2d4fd6c6af09
p1871
F721.084125
tp1872
a(Vbeb5ec34-62a7-48e9-bdbb-9aac96da9055
p1873
F841.247375
tp1874
asVNavarasa kanna\u1e0da
p1875
(lp1876
(V850db40c-eee9-479f-971d-ca96620ebe3b
p1877
F288.444125
tp1878
a(Vdd885969-c9d8-4888-88d3-ad8960149346
p1879
F314.148625
tp1880
a(V67a84b67-f2d9-4df7-abfd-bc419993507f
p1881
F325.17225
tp1882
asVK\u012bra\u1e47\u0101va\u1e37i
p1883
(lp1884
(V5275600e-cb62-4b26-b48b-135fa7f28b1f
p1885
F213.498875
tp1886
asVSencuru\u1e6d\u1e6di
p1887
(lp1888
(V40af10cc-2f4b-496d-a786-1c437f0f0c6e
p1889
F94.6155
tp1890
a(V78cb31f6-4c15-44b9-9228-afe487617d29
p1891
F157.84
tp1892
a(V740b8319-5fe3-4e2b-827d-7680c2c00eea
p1893
F161.698
tp1894
a(V708cea7e-ff90-4d74-81e2-f27642055fd4
p1895
F171.938
tp1896
a(V26ba8577-b465-4d8e-a961-849a01c8ab7a
p1897
F183.1445
tp1898
a(Vb28b4219-04e4-44e3-a37e-25f94705a594
p1899
F183.51025
tp1900
a(V770634ef-d6b4-4649-a9f1-fb2196f78c1d
p1901
F188.8915
tp1902
a(V1197169e-74c6-4c0e-8a86-dffc5220aeaf
p1903
F190.093125
tp1904
a(Vdff37eb2-f206-4073-9b96-ae1113b5a378
p1905
F200.228625
tp1906
a(Vca4ee2d1-401b-45d9-aa0c-bd8912b7292b
p1907
F235.608625
tp1908
a(V1d71cf2d-3c4b-4e2e-8724-66aa24563cca
p1909
F251.951
tp1910
a(Vf2d5e000-4efd-4cf5-802a-80dd32936a14
p1911
F258.142125
tp1912
a(V85c4b7dc-b0f8-4745-87bb-a8b96e21fe0d
p1913
F278.204125
tp1914
a(V512e78a4-5314-4ad8-b9ba-80644684891c
p1915
F289.253875
tp1916
a(Veca1fdd2-0c51-4344-ac00-d7868233a5f2
p1917
F295.262125
tp1918
a(Vb34db4e2-70fd-49a1-8d47-3574faae5eb4
p1919
F296.333125
tp1920
a(V0025fe12-52a5-4d4c-af71-2e9cd176793d
p1921
F310.961625
tp1922
a(Ve599b142-7ff7-4c1e-9c5d-01d669798449
p1923
F320.7315
tp1924
a(Vbfa83fb3-e3c7-427e-9268-47667c969bb6
p1925
F383.007375
tp1926
a(V3a79af7a-b14d-4176-b673-8ec4e362dd8d
p1927
F402.207375
tp1928
a(Vd795d8e4-d91e-4f7b-a994-744433e5f5ed
p1929
F424.176375
tp1930
a(V1907ae67-5e59-4255-a51f-20e9874b2813
p1931
F440.816375
tp1932
asV\u015aivaranjani
p1933
(lp1934
(V73debe17-145a-4031-a26a-c7986e88e5f4
p1935
F407.40575
tp1936
a(Ve2ddf1c2-6662-4404-8517-77dd097ebcc3
p1937
F785.841625
tp1938
asVGa\u1e41bh\u012bra n\u0101\u1e6da
p1939
(lp1940
(V66d2f418-2e97-46da-a689-c94ab70b829e
p1941
F340.1405
tp1942
a(V2e87ed14-4a88-48b9-8c07-9856a5bab19d
p1943
F382.055
tp1944
a(V6e7ef0df-21b0-4d4a-b0ba-656a19aebcae
p1945
F386.638375
tp1946
a(V40b29f9b-5c8e-4101-9205-f9f76bd71585
p1947
F426.893125
tp1948
a(Vaca9b4dd-f899-4f54-bafd-81e53c04c850
p1949
F440.607375
tp1950
a(Vaa2f3e6b-6e1f-4b8a-9c29-a082424eb8f7
p1951
F488.698875
tp1952
a(V4e8735d2-7c2d-41d6-92e7-8ad2f0df6015
p1953
F650.5535
tp1954
a(V7472e210-6f4b-43cd-9813-df0d0ce97cf2
p1955
F1137.31925
tp1956
a(V39193815-a583-4f6d-bdba-9bbc2518b0c3
p1957
F1153.462875
tp1958
asVKar\u1e47aranjani
p1959
(lp1960
(V0caf3703-dd64-472b-8e31-f45090ff31b0
p1961
F242.8605
tp1962
a(Vcd42690e-0b0d-4816-a43b-15af855618f9
p1963
F258.116
tp1964
a(V250aba48-8e98-449c-b9ea-942828ea27c3
p1965
F338.4425
tp1966
asVAm\u1e5btavar\u1e63i\u1e47i
p1967
(lp1968
(V833331e9-7907-4e28-b60d-8c8186931dfd
p1969
F407.7595
tp1970
a(Vf0a31bd3-983f-4fbe-b715-2ef0ea577158
p1971
F437.942875
tp1972
a(V15334b78-24d1-4070-a2ac-35767e959871
p1973
F531.053375
tp1974
a(V8b98d973-a721-4fd4-9368-83db01e5da71
p1975
F1119.84325
tp1976
a(V93ec659b-7676-4070-bea2-e2dc03ca6300
p1977
F1614.85175
tp1978
asVK\u0101nt\u0101ma\u1e47i
p1979
(lp1980
(Vf972a196-59a1-4875-b21f-2e8752c346a0
p1981
F310.099625
tp1982
asVT\u014d\u1e0di
p1983
(lp1984
(Vad1e8b36-e750-4578-a37b-3028f71dd1fe
p1985
F134.34775
tp1986
a(Vf1d59d79-f26b-43cc-af21-afe0793fc6c8
p1987
F188.10775
tp1988
a(V0bc86ae5-dcfc-42ec-916e-bd9a1288f31d
p1989
F195.201
tp1990
a(Vab8fff58-8359-4af8-bc2a-6d623d4ac48b
p1991
F207.766
tp1992
a(Vb273ee1b-92e1-4822-b406-2c6712d961e0
p1993
F252.604125
tp1994
a(V68b6383f-eb92-4ece-b6e8-9a9ad8260807
p1995
F322.638375
tp1996
a(Vbdc67542-86ca-4d8c-9733-987ce8c6f3a2
p1997
F373.0
tp1998
a(V491c9eb6-bc03-4818-b1ed-f54088ff360f
p1999
F382.72
tp2000
a(V2e442473-f712-481d-9389-9c59705966dd
p2001
F395.258875
tp2002
a(V0d9bce97-35e0-4896-b6d1-bf2e89ac02fa
p2003
F413.32
tp2004
a(V7aeef1f7-9d5c-4910-85fa-e3cef20f7bef
p2005
F413.361625
tp2006
a(Ve2689faf-5d7e-4d2b-bb55-2e306f8340d6
p2007
F422.191
tp2008
a(V3e9f9dc3-7f64-4561-a2c1-80dd9fa66ebc
p2009
F446.04075
tp2010
a(V3eeb63f2-a46a-42a0-ac46-eaaa90d1eb43
p2011
F672.9405
tp2012
a(V9438f9d0-869f-44db-a474-119732a0f36a
p2013
F698.514375
tp2014
a(Vad1dd589-a6d7-4f2a-bfd6-356e29c5eb66
p2015
F720.69225
tp2016
a(V1d11eedc-c1f6-4dfb-9b5d-f7604197d11c
p2017
F753.554375
tp2018
a(V9ee45717-52de-4a09-9a4a-49d17c45c7c9
p2019
F754.49475
tp2020
a(V89473b33-d96f-40bb-adce-3b25e4a45971
p2021
F840.6205
tp2022
a(V51043bde-c2b7-49d5-91ce-bc6a80ce2084
p2023
F883.80075
tp2024
a(Vfe8cc84e-73bf-4c48-bd56-09d2bb142e72
p2025
F896.16
tp2026
a(Vb1ae7ad0-66dc-4207-b06d-fd402bee7323
p2027
F943.0205
tp2028
a(Vc1bac81a-0efb-4494-ad93-cafe102aa05c
p2029
F1025.12325
tp2030
a(V9d53827d-608a-4169-a7bd-8d2e3f4b83ec
p2031
F1080.058875
tp2032
a(V82b2e807-7094-463e-b150-ed798e621681
p2033
F1189.8515
tp2034
a(V7508f4c5-2192-4ba4-8c03-82fdad6fe00c
p2035
F1198.1845
tp2036
a(V4e2ee259-5448-4843-b29c-fc74906376f6
p2037
F1238.76
tp2038
a(Vb9f0d354-70a8-464b-9389-37a6e2381385
p2039
F1285.06775
tp2040
a(Ve692d4fb-cf20-4d4f-a40f-d538d61f10b3
p2041
F1311.373125
tp2042
a(Vd76bbdcb-23f8-47df-9225-c3a7f4bc1ee1
p2043
F1341.570625
tp2044
a(V4a0eec90-de3a-4393-94ab-56d853eb2bc7
p2045
F1375.869375
tp2046
a(V12c746d9-a106-4c3e-a0b9-3fdbcff239de
p2047
F1531.173375
tp2048
a(Vcd1ea663-74da-4e03-9699-a6e61dda9f05
p2049
F1566.43275
tp2050
a(V38aa057a-2549-484a-be95-950646deb6df
p2051
F1606.373875
tp2052
a(V99ef06f0-38cf-456c-9541-a8a04edaae5f
p2053
F1642.69825
tp2054
a(Va3f5bc13-3e10-467b-a89e-678184a55ba0
p2055
F1779.5135
tp2056
a(Vf9556cac-894a-4c18-a632-8e81c649daf8
p2057
F1814.54375
tp2058
a(V16aa5f80-66d6-44ad-901c-9844250b2d88
p2059
F1841.737125
tp2060
a(Vd395a28a-9048-47a8-9b7e-4eb8a0273e56
p2061
F1844.166625
tp2062
a(Vcbd4761e-25ff-43b4-abda-1c06ac05ee1c
p2063
F1994.527375
tp2064
a(Vb1614288-529e-4d5d-888b-f349c80d5f9d
p2065
F2089.22125
tp2066
a(V7e3371e4-fa28-41c2-a8b8-5b2876b4af83
p2067
F2119.94125
tp2068
a(Vd04c37a2-732d-4484-ad4f-a5aa76237940
p2069
F2235.834625
tp2070
a(V4f1344dc-6c00-496b-8660-3a97d17831b5
p2071
F2333.178875
tp2072
a(V1f33403a-d774-4338-9414-5353e22419d4
p2073
F2375.1315
tp2074
a(Vf7b50667-a5ed-4a6f-a2f5-75ed1d2b3084
p2075
F2450.08
tp2076
a(V2c0f7c85-32b1-4b05-84fe-eeaaa70c0fa6
p2077
F2576.79675
tp2078
a(V3c4f84b0-5290-4146-b2d4-f9b5187aa71d
p2079
F2585.50675
tp2080
a(V91768f2f-6a9a-47be-8d11-ed1946c5cf77
p2081
F2621.466125
tp2082
a(V39d26c16-03d5-4a06-bd67-2cffa63f4306
p2083
F2696.67275
tp2084
a(Vfee6e655-7741-4945-8a01-c2f3d12566e7
p2085
F2822.426125
tp2086
a(V71511da3-06e5-48f3-bf3b-7e2793b5b56a
p2087
F2825.0645
tp2088
a(Ve27fdc38-162f-4a7c-ab6d-c4b6b8164045
p2089
F2825.874375
tp2090
a(Vd6667e3e-752d-4553-89e9-aaa24064ae21
p2091
F2914.246625
tp2092
a(Vca589adb-7814-4170-b7cb-27137a66d22e
p2093
F2992.8
tp2094
a(V6e1dca9a-c342-4911-943c-10995babe654
p2095
F3002.71125
tp2096
a(V828e49d4-d5bb-47fe-828c-f13878f56c8e
p2097
F3067.03675
tp2098
a(V220f8c2c-b7b7-4386-a0fc-8d5d384f2fb4
p2099
F3112.6205
tp2100
a(V04426959-c89d-4bdb-9a14-d0b1ce9fe531
p2101
F3263.216375
tp2102
a(V16a8665a-9710-4cbe-b5ae-cc38e20fe711
p2103
F3344.50675
tp2104
a(V54efb599-d288-4fb6-b94c-697d135d88e8
p2105
F3542.909375
tp2106
a(V0cc1dc29-05af-42eb-8b87-7d15d706d7a6
p2107
F3627.859625
tp2108
a(V0c39974c-028f-41cc-8fbd-f8027d5ff90a
p2109
F3748.453375
tp2110
a(V87d2a5b0-59cf-4c4d-8e85-2215fd5924de
p2111
F3814.191
tp2112
a(Vfca0a0f1-a66a-4178-bb52-5ba70e839747
p2113
F3862.831
tp2114
a(V1e2bc579-2fac-40be-b75b-02312af411fc
p2115
F4695.588625
tp2116
asVNavr\u014dj
p2117
(lp2118
(V3caa7147-315d-46f3-96da-b2df7f94a496
p2119
F90.78425
tp2120
a(Va27b222f-ebc6-470d-8e2c-05fe6bc8e779
p2121
F103.314375
tp2122
a(V2a8bb9e0-f048-4c12-9e75-407b0c828995
p2123
F137.796
tp2124
asVLalita
p2125
(lp2126
(V3efab55b-9479-4c13-93f5-dcde27ed77d2
p2127
F449.059125
tp2128
a(Vca84bc9c-7195-4625-a7ce-359c9c2afb96
p2129
F552.56825
tp2130
a(V5768cc4b-efce-4656-be0a-b9568f929a55
p2131
F1494.375
tp2132
a(Vddeab8ad-dda8-4cde-b543-e994bddc9c6a
p2133
F1833.32575
tp2134
asVMi\u015bra kham\u0101j
p2135
(lp2136
(V7dd4ed9d-aee9-45c4-898a-33841d19e18d
p2137
F350.458875
tp2138
asVBh\u016bp\u0101\u1e37a\u1e41
p2139
(lp2140
(V19f98ba6-6206-441b-9c43-8af4a667f0f2
p2141
F299.441625
tp2142
a(V2e28e765-55e6-43b9-9232-6f451a26a29c
p2143
F531.618
tp2144
a(V4ba2fcf2-29d7-4a83-bbe4-75eb082e5c32
p2145
F557.636
tp2146
a(Vd76497c9-672d-423b-92b6-0023d2cd53e7
p2147
F639.216375
tp2148
a(V2091775a-593c-401a-a561-6cc6478373d2
p2149
F639.973875
tp2150
asVMadhyam\u0101vati
p2151
(lp2152
(Vbb1630dd-cfb2-47c7-b090-02723598a750
p2153
F54.26675
tp2154
a(Vcb280397-4e13-448e-9bd7-97105b2347dc
p2155
F79.125
tp2156
a(V3411be7f-4dd6-4d44-82a3-087b680108c1
p2157
F85.106875
tp2158
a(Vac58786c-3938-4d93-9e9f-bbc3a56265fa
p2159
F92.801
tp2160
a(V4551587f-ff0b-419d-99df-a2ef4d572a4a
p2161
F93.91025
tp2162
a(V5229a034-0045-4558-8bdf-09c8338ea82e
p2163
F120.133375
tp2164
a(V861ed593-3891-4939-91e9-b58960c19434
p2165
F136.516
tp2166
a(V0d245ce8-fc24-48c2-aa53-fc0c89eff7fc
p2167
F168.28075
tp2168
a(V860cb11c-bdc6-4fa3-a501-0cea9fad4fcf
p2169
F181.4205
tp2170
a(Vbd40e6c5-5cc5-4cbc-bc6d-5e0df14575ab
p2171
F203.12825
tp2172
a(V9962fa86-1060-4f9d-93d2-128ac958c2b8
p2173
F208.549625
tp2174
a(Vbe745323-9c2a-4a99-ba63-db1fe9da75a3
p2175
F212.401625
tp2176
a(Va8ded29b-b001-4be2-9134-81aacdb8dad0
p2177
F224.130625
tp2178
a(Ve41fd41a-cae4-47ce-91fe-e962859d8f8a
p2179
F259.84
tp2180
a(V38939833-839c-49ec-9a99-261f00323bab
p2181
F266.658
tp2182
a(V29abee6e-8cd0-47e4-8e6e-cd6ffc34d87f
p2183
F271.93475
tp2184
a(V767496a9-af7e-4b1e-bf40-894390379b04
p2185
F295.7845
tp2186
a(V8c08535d-2fd3-44dd-b937-0bf812a40524
p2187
F383.4515
tp2188
a(V6a0857d0-512e-46d9-b7bf-7c53a46c792a
p2189
F399.93475
tp2190
a(V06877163-9cb0-4f0f-b43c-e2892498e891
p2191
F416.626875
tp2192
a(V2e60e4ab-f247-4c52-b48a-4fa24f24fd8c
p2193
F566.70675
tp2194
a(Vbb258149-7987-42cf-95b7-f88d1228f999
p2195
F632.973125
tp2196
a(V9bc3bca7-3360-4e6a-9c60-d38bfc2da752
p2197
F1398.33475
tp2198
a(Vdf7c36ca-3a88-41c3-b3f1-75a47f7f80d4
p2199
F1637.093875
tp2200
a(Vd784327a-c274-444b-a73b-17646c09d636
p2201
F2143.973875
tp2202
a(Vc44e3435-ac80-4543-bdea-fa975ca3480f
p2203
F2654.066875
tp2204
asVRanjani
p2205
(lp2206
(V393f4891-7869-4067-b22b-18219873c4b1
p2207
F316.969875
tp2208
a(Vef6a9f72-9eeb-47df-b375-6186ad06ba5d
p2209
F377.31275
tp2210
a(V903f0b2d-faf9-4c0a-9235-66ce9085ecf8
p2211
F525.3225
tp2212
a(V1b6e28d1-5798-4586-a08f-3e741b9f49d1
p2213
F928.862125
tp2214
a(V3dfaef3a-9d52-4a6d-a388-859c57fee7d0
p2215
F1049.9135
tp2216
a(V1c3cec4e-1c46-42a2-b83d-db8d6f39ed97
p2217
F1410.521875
tp2218
a(Vd62e1880-4091-47d5-a772-fc855e43b232
p2219
F2843.010625
tp2220
asVTanar\u016bpi
p2221
(lp2222
(V5d1e6f5e-a588-461a-afc4-4d42a68e0adb
p2223
F322.06375
tp2224
a(V7c29d38c-08d5-4317-946d-50524e904dbb
p2225
F597.498875
tp2226
a(V01177df7-52d4-417f-b142-3761c209707a
p2227
F646.752375
tp2228
asVB\u0101g\u0113\u015br\u012b
p2229
(lp2230
(V7c517722-be7c-40d0-a9a8-c022498d075c
p2231
F92.369
tp2232
a(Vff5c35cb-504d-4e19-a2bb-75195114f388
p2233
F242.834375
tp2234
a(V5fd041ef-345c-4b22-8587-07cfb54bfa55
p2235
F264.80325
tp2236
a(V42007a98-d8ce-4bda-b86f-9320aa14dbb8
p2237
F303.2555
tp2238
a(V96e9f8fc-dde3-44d1-a18c-0e4071121f6a
p2239
F334.419625
tp2240
a(Vd1c219f3-5aa0-481a-8ba2-ba3962b4f672
p2241
F363.15925
tp2242
a(V351c3fff-6731-467a-8f41-2bc5397d01bb
p2243
F392.306875
tp2244
a(V394c0217-770e-496b-a910-106bc730a866
p2245
F399.229375
tp2246
a(V56792a5f-b546-49ac-bf7e-2858ad55a691
p2247
F450.56
tp2248
a(V3339f8a0-d821-42bc-ad40-5790df437932
p2249
F586.213875
tp2250
asVKar\u1e47\u0101\u1e6daka k\u0101pi
p2251
(lp2252
(V00dc982f-8544-4455-a252-d649d0abdd15
p2253
F199.157625
tp2254
a(V748da090-59ad-4c91-8993-228f5fe39059
p2255
F383.39925
tp2256
a(Vbe3baa3f-2df7-40c7-b218-9951bb7b9bc9
p2257
F619.23275
tp2258
a(Veb862e09-354e-4d73-b7d7-a6b6571d3567
p2259
F647.889
tp2260
a(V0b1c9f49-9ddf-4d4b-990e-6242a52037b9
p2261
F1008.013125
tp2262
asVMi\u015bra pah\u0101\u1e0di
p2263
(lp2264
(Vb2e746ae-1266-4560-a550-20337418ba39
p2265
F270.75925
tp2266
asVBudaman\u014dhari
p2267
(lp2268
(Ve0cce34f-c120-4975-8865-cba3146e640a
p2269
F444.578
tp2270
asVDh\u0113nuka
p2271
(lp2272
(V312b15fe-5b86-4662-9853-ed8c02f290a6
p2273
F297.56075
tp2274
a(Vff921f63-8c1f-4e16-bd29-4d37e46f9580
p2275
F392.516
tp2276
a(Vbb6c78f8-8f00-4da3-b283-4a4dd701cb5d
p2277
F442.305375
tp2278
a(Vd8cfb76c-b08c-41e4-9aca-1de2375e26f1
p2279
F565.786125
tp2280
a(V6b54bf7d-7cfc-4165-ab71-06044824855a
p2281
F1494.54375
tp2282
a(V72716959-69ab-446e-b6f6-969739f1d994
p2283
F1511.28825
tp2284
asVMa\u1e47irangu
p2285
(lp2286
(Vcd858d47-6901-4861-972d-354a838ce07b
p2287
F258.847375
tp2288
a(V1c474824-d8a9-43c8-8c2d-6b59e945e3a6
p2289
F270.95625
tp2290
a(Vd8d77082-e2f5-42bf-8598-771293a45782
p2291
F385.21575
tp2292
a(V456bf24b-1d6b-4f08-91e8-c57a65e55345
p2293
F940.773875
tp2294
a(V367ede3c-4775-48b2-ac6f-5277610c1c00
p2295
F977.606625
tp2296
asVMand\u0101ri
p2297
(lp2298
(V49d70424-8a14-4e81-be2c-2b72bbe33b35
p2299
F255.921625
tp2300
a(Vb45df085-2514-4483-bffa-0eb25b35dd97
p2301
F350.066875
tp2302
a(V228802ab-0055-47bf-bc3e-ecdb91fd889c
p2303
F471.837875
tp2304
a(Vcfab38b6-c8ed-4bb0-b2fb-845503a0fd02
p2305
F620.773875
tp2306
asVMadhyam\u0101 var\u0101\u1e37i
p2307
(lp2308
(V438b9c71-05a5-45e7-a8da-b7c18bb4a1de
p2309
F487.73225
tp2310
asVMaduvanti
p2311
(lp2312
(Vd03ee8cd-ff6a-492f-92db-992aff38a430
p2313
F286.72
tp2314
a(V84b20565-5e49-41f7-95a9-6ef495e85ff4
p2315
F444.369
tp2316
asVHind\u014d\u1e37a vasanta\u1e41
p2317
(lp2318
(V1f71b08b-ee75-421c-978d-ce336ebe9994
p2319
F269.58375
tp2320
asVC\u0101ruk\u0113\u015bi
p2321
(lp2322
(Ve17085db-5a6a-4850-b4b6-e0cc4d10cedf
p2323
F278.204125
tp2324
a(V01a616bd-438c-4539-9b4d-64d04608617d
p2325
F430.44575
tp2326
a(Vcced0d14-65e6-4580-9966-d313d720a5a3
p2327
F3202.04
tp2328
a(V72ae05dd-606a-46f0-8be6-b632169901ac
p2329
F3238.373875
tp2330
a(V3b43bb6d-14cd-4753-9c6f-d713b3b5fe90
p2331
F4057.0515
tp2332
asVJy\u014dti svar\u016bpi\u1e47i
p2333
(lp2334
(V7d5d8a57-3afa-489c-b2bf-7104f160b468
p2335
F332.40825
tp2336
a(V0298a06d-ffe9-4d83-922d-dedbc3bfde21
p2337
F415.556
tp2338
a(V775d0090-695b-4f8a-a1ad-9dda47915a32
p2339
F732.4735
tp2340
asVMi\u015bra yaman
p2341
(lp2342
(V8ff016e2-6149-4a45-b46f-b8cd24d115dd
p2343
F163.9445
tp2344
a(Vddc61a70-8f2d-4def-946b-34353cce2f00
p2345
F170.449
tp2346
asVVaramu
p2347
(lp2348
(Vf2fae941-527f-421d-aedc-e6b53494b51e
p2349
F512.99275
tp2350
a(V521a5834-7c7b-4c3c-9c8e-f8088ce746ce
p2351
F1213.936375
tp2352
asVAs\u0101v\u0113ri
p2353
(lp2354
(Ve27d0605-1426-45a4-b34f-a9520742cf53
p2355
F218.07025
tp2356
a(V825ef36b-e837-412f-9dfa-4c5d521c8f6c
p2357
F248.502875
tp2358
a(Vaacd01bf-c55b-4e29-8400-010a44bdce9a
p2359
F266.18775
tp2360
a(V94fdd0ad-5302-44c9-9385-59a2953c220c
p2361
F300.6955
tp2362
a(Vb81237c7-f3bd-414f-ad81-e99cabca44ef
p2363
F678.948625
tp2364
a(V8f98abfa-d4ee-4b5a-9b47-1499f948953b
p2365
F2478.08
tp2366
asVN\u0101\u1e6dakapriya
p2367
(lp2368
(Vafc8faab-9c05-466c-b63c-ca59bc3e28fe
p2369
F557.68825
tp2370
a(V3f025647-b2ad-4a59-893a-6de2bc1c130b
p2371
F967.549375
tp2372
a(V91e8662e-f24a-4314-8ab3-f4adae955d09
p2373
F1110.256375
tp2374
a(Vcec6de46-c717-45b3-826f-58de5b935497
p2375
F2979.175
tp2376
asVSimhav\u0101hini
p2377
(lp2378
(V32eaa553-acb8-49a1-8bca-39bbdba06684
p2379
F284.342875
tp2380
asVKam\u0101s
p2381
(lp2382
(V46b47787-9c78-4e7a-b608-66fdac079866
p2383
F113.2
tp2384
a(V2d34be09-b844-4228-98a2-28f248f44744
p2385
F172.930625
tp2386
a(Vf680d1c4-5fef-4a7a-afcb-105ccfc2ffbe
p2387
F200.56825
tp2388
a(Vc65226d6-a072-4379-bb24-28b128f76833
p2389
F202.3445
tp2390
a(V51361218-86a5-49f7-a65c-d1796fb69701
p2391
F210.756
tp2392
a(Vf061f77e-074f-4fc9-841b-30c932b36cb8
p2393
F212.035875
tp2394
a(V539f5ee4-f163-452a-ae6c-ffb3231bdd57
p2395
F213.342125
tp2396
a(Vcb7ecb9a-4c91-4688-941a-bfa2154e7e9f
p2397
F227.34375
tp2398
a(Ve9dd4330-f70e-4422-a8b3-665da7b60777
p2399
F241.554375
tp2400
a(Veb668ea4-fee2-428e-b564-3927c60f5ebe
p2401
F245.91675
tp2402
a(V520dda6e-968c-4df9-b2f4-70c3c384ecf7
p2403
F254.56325
tp2404
a(V4f148ee3-4bba-4a48-8b1a-09a22efca640
p2405
F264.28075
tp2406
a(V5f270bdb-4df2-4cb2-8c1a-31675de3593f
p2407
F265.57475
tp2408
a(V635def54-affd-4308-9065-e198593258de
p2409
F268.329875
tp2410
a(Ve9185a7f-e7b2-46b8-a1e5-96a35c3c59b4
p2411
F271.034625
tp2412
a(V4c9fc492-c064-4af1-85f7-a413e40d20a6
p2413
F286.77225
tp2414
a(V464ae7e7-dcae-4334-ae18-2baafca89699
p2415
F298.684125
tp2416
a(V1e6e54c5-1a73-4498-a296-0e6dd70ccc2f
p2417
F306.16
tp2418
a(V7d55af13-a64e-4dc9-a28a-c0e6cfd1da32
p2419
F306.39025
tp2420
a(V5099b199-5508-44dd-843d-34ab8660fea9
p2421
F310.517625
tp2422
a(V14f9192e-8f5d-4945-9362-05ba1b9fa4b2
p2423
F320.287375
tp2424
a(Vff6c44fb-c89d-49de-8825-cbbcdcbb7fe0
p2425
F328.594375
tp2426
a(V4555a5d2-138f-4846-8528-7ecf62b2ebc3
p2427
F339.069375
tp2428
a(V22a9b444-798d-4d71-b233-08880a721b22
p2429
F378.409875
tp2430
a(V7689b486-74f5-4cbd-a6ca-a4e91e090b2f
p2431
F447.6605
tp2432
a(V41a138f7-59a4-4ef9-ae37-5b9fd097269c
p2433
F525.244125
tp2434
a(V8a3df804-fcd1-46d4-a662-3162a8374c41
p2435
F561.3715
tp2436
a(V6c3bec9b-0afd-4033-a15c-7134205b2a7e
p2437
F580.51925
tp2438
a(V7a9eb235-f59f-4ef4-9507-4b9561f63bbe
p2439
F581.813375
tp2440
a(Vbe9ce223-4086-4002-a417-92c13b979b34
p2441
F601.22675
tp2442
a(V2e6504c2-3ef1-4272-98a1-f32b2b0477e2
p2443
F601.50675
tp2444
a(V415e65d6-77eb-4e06-a98f-c413151939b6
p2445
F689.016125
tp2446
a(Vd580c76e-bdd9-4be6-a79e-df38538fa58c
p2447
F846.289
tp2448
a(Vca18525c-79b5-4cc9-aba6-095830c2307e
p2449
F874.60575
tp2450
a(Vbab265f4-6e15-4011-a748-0ca239c4512a
p2451
F878.628625
tp2452
a(V3658fd19-de11-491d-b0a2-a73510e22628
p2453
F901.877625
tp2454
a(V36c5d780-037d-4e31-a9be-14796f2bfb67
p2455
F1061.38125
tp2456
a(V986aa6cf-8cea-4572-96f1-a173dca24521
p2457
F1149.831875
tp2458
a(V59e2f3de-cdb1-4a00-9fc4-2917c0230db9
p2459
F1154.06375
tp2460
a(Ve698dd0f-346e-41e5-b3d8-015c76b25668
p2461
F1162.422875
tp2462
a(V987d70fc-536f-4190-a503-6bc3495209bb
p2463
F1517.766625
tp2464
a(V79a9485d-549d-4fc6-a3f4-ee956bb02e36
p2465
F1523.7225
tp2466
a(Va5879d8c-d960-4b29-850a-666ecea7010e
p2467
F1531.062875
tp2468
a(Ve6d85f60-2857-443f-8c3a-8ffb8d8c670e
p2469
F2674.782125
tp2470
a(V53fa9f24-db5b-4419-b0db-79586b1c3f7d
p2471
F2765.426875
tp2472
a(V4eec07fe-02a9-4d8e-bd94-fd674a9059db
p2473
F2772.062125
tp2474
asVMalahari
p2475
(lp2476
(Vb95d8a47-3795-4d1e-a234-6fcca340483a
p2477
F538.1225
tp2478
a(Ve7e0d724-eb77-4d8b-ae69-7990d2a4686b
p2479
F668.52575
tp2480
asVKar\u1e47\u0101\u1e6daka d\u0113vag\u0101ndh\u0101ri
p2481
(lp2482
(Ve47ca591-9257-4a4b-97b9-67911395f70f
p2483
F187.42675
tp2484
a(V69b71cbd-92e8-4ea0-807c-5678628c36f7
p2485
F211.67025
tp2486
a(Vcf6ac519-3242-40b5-8e3f-60a4c66423f2
p2487
F272.196
tp2488
a(Vd6006696-b206-4c4f-a7e5-2b8c2a6025c6
p2489
F290.992125
tp2490
asV\u015ar\u012b
p2491
(lp2492
(Vf42aa3c4-3614-411e-9a10-f38cd33f3f11
p2493
F186.436
tp2494
a(V59e46971-2162-432a-88d8-e0ced845c424
p2495
F204.930625
tp2496
a(Vce37d456-6d5b-4e91-a782-8e5786b836af
p2497
F212.114375
tp2498
a(Vbe10761e-2c3a-44d0-9f51-cd08192c6f97
p2499
F257.688
tp2500
a(V73e7e1a9-42ad-444e-aa09-affa7360c794
p2501
F274.80825
tp2502
a(Vd2af2409-99c0-493d-96a6-302985957ed6
p2503
F280.37225
tp2504
a(V42ee34f1-f25d-49c3-815d-206ac7a559f2
p2505
F302.994375
tp2506
a(Vbea11031-f395-44db-8adb-2206152bbb9e
p2507
F307.25225
tp2508
a(V9c5dbdce-260f-4d4f-b5f7-a94371df5bf3
p2509
F308.271
tp2510
a(Va2726509-4558-4e35-ad31-2ad844709928
p2511
F314.93225
tp2512
a(V4aedf807-1592-4d25-a5dc-d3f972e1a210
p2513
F315.56
tp2514
a(V3e1cae5c-5dd0-4d64-9e41-f5beef59cf05
p2515
F334.75925
tp2516
a(V97a7ceaa-9f02-4c0e-ab16-eff9057c88a8
p2517
F362.5535
tp2518
a(Vcd85cecd-3acf-48a9-8eb0-f6ffda52cfa1
p2519
F390.34775
tp2520
a(V830796d0-90f4-4c69-984f-691e73d048dc
p2521
F454.739625
tp2522
a(V4c14cdba-2438-487b-9400-e68227ec3fdf
p2523
F496.5355
tp2524
a(Vd76cda86-e0d4-4775-830e-77104265ac03
p2525
F505.10375
tp2526
a(Ve6761321-ccab-40e5-a102-a0293d746cfb
p2527
F539.55925
tp2528
a(Vffa40caa-e7d1-4776-8b4a-72584a06879a
p2529
F560.64
tp2530
a(V8e07413a-9b7d-4be2-a2ae-0ca1ce28c6a1
p2531
F642.56
tp2532
a(V23836f44-f40b-48ce-b1de-df4d2cbc18e9
p2533
F709.27675
tp2534
a(V75c4ac9f-ce32-4449-94a1-965ace2d7df7
p2535
F787.1015
tp2536
asVBh\u016b\u1e63\u0101va\u1e37i
p2537
(lp2538
(Vcd31b16b-de0c-481f-b3ae-eedcf201a055
p2539
F236.4485
tp2540
a(V33349774-5747-4bdd-a363-9585969be7c2
p2541
F257.06675
tp2542
a(Vd9c23b06-f106-4f11-b187-49069b333200
p2543
F1046.23025
tp2544
asVV\u0101gad\u012b\u015bvari
p2545
(lp2546
(V7cb74671-9157-4c11-b68f-5d749c492684
p2547
F406.43925
tp2548
a(Vbedc82f2-d42c-4062-9fc1-832f7f1bfd62
p2549
F409.7045
tp2550
a(V9a7c92c3-505e-44cf-8601-8693290fff21
p2551
F525.58375
tp2552
a(Vef6f7e45-479c-40c8-a1c8-3fe8dd97b474
p2553
F892.775
tp2554
asVDev\u0101m\u1e5btavar\u1e63i\u1e47i
p2555
(lp2556
(V18520fed-b3c0-4f7b-9c26-c852edd30461
p2557
F249.0515
tp2558
a(Vac65281e-4b83-4c93-811a-ba42095bd588
p2559
F284.94375
tp2560
a(V88aab8a5-8610-43b3-a79a-e67a26c632e1
p2561
F303.72575
tp2562
a(V6f53db94-aacb-4adb-a299-67408a25a393
p2563
F343.04
tp2564
a(V269ccc04-ae28-4b16-ba15-7a69bb4dfa24
p2565
F373.26375
tp2566
a(Vf60ab9a4-c1bd-411f-8f64-52915bb5fbb7
p2567
F416.966625
tp2568
asVP\u016br\u1e47acandrika
p2569
(lp2570
(V8385d066-067a-4252-a2c5-d59fa9f69931
p2571
F90.20075
tp2572
a(Vffe5da02-8a71-4933-b414-62ca298dc777
p2573
F108.2395
tp2574
a(V6c34a8a4-3b0f-4c73-9ee1-ba323d7a968c
p2575
F190.066875
tp2576
a(V652cb8a3-f212-4743-8dc7-1ef2fb0b5966
p2577
F205.714375
tp2578
a(Vbfff5d12-7577-4f1a-8bbb-1df0848ce6ac
p2579
F277.46075
tp2580
a(V393fa01b-271f-4e6f-8751-b4b9d22c647c
p2581
F350.354375
tp2582
a(V04b3244e-a235-4cff-8833-f0e4468c815f
p2583
F658.364125
tp2584
asVN\u0101gasvar\u0101va\u1e37i
p2585
(lp2586
(Vff4d2d32-d293-41d9-b5db-1efd53bc952e
p2587
F146.756
tp2588
a(V960fc0bd-65a1-495a-a894-85ed98b3a63a
p2589
F188.2645
tp2590
a(V06ad6e2b-c5f1-42fa-a301-7bb933fcc840
p2591
F228.179625
tp2592
a(V53ca7224-09ce-4904-b506-9ea0b06fdadf
p2593
F288.26125
tp2594
a(Vb3f6d28a-e54d-44cd-8202-f4e68c8f875e
p2595
F294.34775
tp2596
a(V7ad90332-cf8e-4710-bfdf-f6aee6ec0af0
p2597
F300.0425
tp2598
a(Vf07e17ae-95c6-4ee4-b1a9-f9cdcf82970a
p2599
F444.94375
tp2600
a(Vf80afa32-953d-442a-b4e6-207a98d42706
p2601
F445.518375
tp2602
a(V7f6677bc-5bf7-47dd-a5ba-b220d7c58174
p2603
F475.925
tp2604
asVR\u0113vati
p2605
(lp2606
(Vf9d0165f-7515-4028-936d-e2d13d1c38e5
p2607
F211.435125
tp2608
a(Vdc9c4894-386f-4d79-a071-d455d550b6eb
p2609
F276.5845
tp2610
a(V46d7dd18-9623-4514-8391-a457ca5f2df6
p2611
F278.0735
tp2612
a(Vc412e3c8-530b-4d94-8368-d35ba1eabfbc
p2613
F290.742875
tp2614
a(V2905a78a-44e6-4f3c-a6db-3705545e6f3c
p2615
F299.6245
tp2616
a(Vafd2b465-4313-42b3-984e-40ea1aabab10
p2617
F327.810625
tp2618
a(V8f9cbbc5-63af-4f5c-85d4-4577dac2c553
p2619
F392.04575
tp2620
a(V4f8747fd-2ed0-4c27-ac2f-bf63afc5181e
p2621
F430.23675
tp2622
a(Vbaefe334-12a7-49be-b7d0-1a1679b003b7
p2623
F572.73475
tp2624
a(Vd8901fda-73c2-4a98-983f-556f01718b19
p2625
F615.73225
tp2626
a(V91df0d10-714a-43db-a6ff-b31dd176692f
p2627
F671.921625
tp2628
asVSvararanjani
p2629
(lp2630
(V8faffeb0-d59f-4f8a-952d-e38b9adc0122
p2631
F249.31275
tp2632
asVVasantabhairavi
p2633
(lp2634
(Vde125396-c5cc-4905-a2a4-fab53c99f5bc
p2635
F166.45225
tp2636
a(V062f535d-3b90-4a7f-b957-e90ea5ed1b77
p2637
F228.336375
tp2638
a(Ve439a7b6-539e-4d56-b6a2-9b70c26fcd04
p2639
F354.27275
tp2640
a(V888f2a4c-a2f4-4e04-b3ab-6f24e63fb634
p2641
F695.88
tp2642
a(Vba111e92-fdec-4415-9889-26f693e90cd9
p2643
F1233.3715
tp2644
asVHam\u012br ka\u1e37ya\u1e47i
p2645
(lp2646
(Vd31e2f32-75df-4b1f-817f-5c7baeba2a78
p2647
F181.394375
tp2648
a(V423ae7db-c62f-4b1d-b18c-e2eb0d1f800d
p2649
F191.38725
tp2650
a(V8f0ceb80-4bd5-4660-a3ed-5c027da3dc18
p2651
F221.466125
tp2652
a(V1f4c1f3e-a70f-4197-a1ad-4c4cf428edd6
p2653
F231.889
tp2654
a(V8a74ca29-7991-4300-b41d-d44edcac7025
p2655
F271.896625
tp2656
a(V4b8c20ce-d33a-4f6f-a547-82ed6bcbd417
p2657
F402.416375
tp2658
a(Vac871df7-1dbc-414d-8ad3-4871a87578a4
p2659
F457.195125
tp2660
a(V88da7929-bccd-4677-befa-95ee8b46c4a0
p2661
F935.52325
tp2662
a(V18e1ba56-70cb-42fa-acb5-f8848565aedd
p2663
F1922.377125
tp2664
asVV\u0113gav\u0101hi\u1e47i
p2665
(lp2666
(V55f5975c-c5b4-43e7-a2e4-d3724c51c4e8
p2667
F425.43025
tp2668
asVNir\u014d\u1e63ita
p2669
(lp2670
(V386986da-0f81-4325-b42d-4817bc2af680
p2671
F331.57225
tp2672
asV\u015audda s\u0101v\u0113ri
p2673
(lp2674
(Vac4335cc-4bcb-4dcd-a82e-ef37d0f18f4e
p2675
F113.92
tp2676
a(V3dbeaf76-b439-46ff-b459-bbadffd4b5b5
p2677
F235.911875
tp2678
a(Vcca50568-06ed-4d4a-9640-725671888bfc
p2679
F244.715125
tp2680
a(V455c858a-da98-4094-a41d-41d0154037f2
p2681
F262.832125
tp2682
a(Vdc95cd55-c823-46be-9202-4f580342463d
p2683
F272.927375
tp2684
a(V0959d3ab-99a9-4203-928c-8ac5e35b4d84
p2685
F342.596
tp2686
a(V3028b0d9-ca92-4432-ac4c-26acd580d9c8
p2687
F356.127375
tp2688
a(Vba38986b-e689-40d1-aaa9-e5fabadbf58d
p2689
F629.577125
tp2690
a(V1305b604-0785-45de-b187-f452d0049212
p2691
F777.4825
tp2692
a(Va1ac4e0f-75ea-4255-84ca-2a9d2191ef49
p2693
F1720.8425
tp2694
a(V24aeb0cb-5b82-4f3a-96fd-e9f328a9e90e
p2695
F2346.057125
tp2696
a(Vb3aa2104-039a-4010-85db-75f7b3d14acc
p2697
F2378.475125
tp2698
asVV\u012bra vasanta\u1e41
p2699
(lp2700
(Vb21ca8b6-50fc-4e1e-b55a-d90058badb5d
p2701
F157.59675
tp2702
asVGau\u1e37ipantu
p2703
(lp2704
(V6d045df8-83e5-4a54-8e14-c4794cb94401
p2705
F167.5755
tp2706
a(Vf7708f47-d027-475a-9008-9a73fa29d727
p2707
F184.946875
tp2708
a(Vdb47fe1d-1294-4e32-b7f3-09c81aae2d61
p2709
F215.379625
tp2710
a(Vc218fbdf-667f-46b9-a843-2151ec4bfb82
p2711
F223.50375
tp2712
a(V0c862f34-5026-49f9-8023-f7d7123981d5
p2713
F284.8915
tp2714
a(V9751fc40-74b7-4ec5-b21e-daa9ef7fb009
p2715
F311.222875
tp2716
a(V929f7a5f-372a-4acc-b65d-7d2d8c31f873
p2717
F444.917625
tp2718
asVSuman\u0113\u015baranjani
p2719
(lp2720
(V886ba51f-e156-43fe-aad7-0fc64388921c
p2721
F321.776375
tp2722
a(Vaa23a560-394d-4da8-a708-d758f9027669
p2723
F507.1935
tp2724
asVR\u0101gavin\u014ddini
p2725
(lp2726
(Vc3a996e1-4318-42ec-b51d-360c5e0115e3
p2727
F310.12575
tp2728
asVHa\u1e41s\u0101nandi
p2729
(lp2730
(V9fa80176-b772-4bf3-a988-5424f4cb98cb
p2731
F85.121
tp2732
a(V1312e316-cecc-414c-8962-cc4175a310cc
p2733
F97.28
tp2734
a(V2c7add50-5b98-48a0-b93a-a3ae49483dbb
p2735
F102.165
tp2736
a(V4d893eb3-ca8b-4a13-9189-fa0684b20e07
p2737
F117.185375
tp2738
a(V9b89fcef-d360-499a-8134-cb1efee0457e
p2739
F130.533875
tp2740
a(Va0a7b078-f8c8-4688-a79a-45bb5a488fda
p2741
F211.382875
tp2742
a(Vfb6a8dc3-955b-48ba-bd08-d56fd39a15d4
p2743
F275.80075
tp2744
a(V036b4712-5f67-4b73-b4b5-f4d3f2291133
p2745
F275.80075
tp2746
a(Vc4fe1e77-015d-487b-9f16-d0e64120a641
p2747
F640.728
tp2748
a(V23311510-5851-44fa-aaf7-98244fe28441
p2749
F782.576375
tp2750
a(V476aca52-56c7-4bb5-9442-aea65b066b3a
p2751
F963.369875
tp2752
asVJayanta\u015br\u012b
p2753
(lp2754
(Vbd92848a-e29e-4de2-80ba-9420e56bb5e1
p2755
F338.155125
tp2756
a(Va1fe0b92-f238-4b55-8e80-07c5ac31fbc0
p2757
F832.26125
tp2758
asVH\u0113mavati
p2759
(lp2760
(Ve0ff121f-2f59-4a90-ab7c-ad0f71761c33
p2761
F1321.11675
tp2762
a(V38a22560-b5ce-4924-baf8-8771bc9cddfa
p2763
F2268.16
tp2764
asVD\u0113\u015b
p2765
(lp2766
(V8607a276-23ca-488f-9a9b-01f81b2a0239
p2767
F160.287375
tp2768
a(V3f916ef1-1598-4bb3-81f5-c30457c8a9f8
p2769
F260.690125
tp2770
a(V3ea95670-be4b-4e0e-8c72-abb32b7ed8da
p2771
F261.6425
tp2772
a(V681edf35-1e90-4a09-8d4b-570da8356265
p2773
F358.0605
tp2774
a(Vce7aca52-be03-4681-a02d-f71021d70956
p2775
F430.706875
tp2776
a(Vaf98f873-33c0-4196-b1d1-6f39fc08fc98
p2777
F608.67925
tp2778
asVM\u0101nji
p2779
(lp2780
(Vb5fbb41a-7838-472f-b76f-a06b585fe3ef
p2781
F480.287375
tp2782
a(V1a8794d1-ce4f-4537-a272-aa71e0c5e149
p2783
F520.881625
tp2784
a(V458bff95-1aee-4b0d-aa7b-b6f95482c2e5
p2785
F527.51675
tp2786
a(V987d76a1-6349-4004-9898-7f2ac65aeaaf
p2787
F631.09225
tp2788
a(V74903a46-a29e-40c2-a299-a594dbcdc3ea
p2789
F686.158375
tp2790
a(V48a567ff-1a2f-4b27-bf0d-8facb216b684
p2791
F706.586125
tp2792
asVVijayasarasvati
p2793
(lp2794
(Va70fa90d-acc2-4676-b4ab-cfcd5280e3be
p2795
F592.875125
tp2796
asVBeh\u0101g
p2797
(lp2798
(V06e944ea-ef9d-4cfc-abc7-daf20fe2f872
p2799
F48.05375
tp2800
a(V718840e9-8715-4f59-ae47-f52d1691dab1
p2801
F116.166625
tp2802
a(V71a6fdca-693f-4c73-85f7-3651958c9e9c
p2803
F125.59675
tp2804
a(V515ad72f-2f0c-473c-9feb-da701c7ce1d5
p2805
F152.555125
tp2806
a(Vcd243803-6449-4672-9f8a-49192d9d7887
p2807
F231.366625
tp2808
a(Ve30f27c6-7109-40bb-bd11-94144551c7e8
p2809
F243.278375
tp2810
a(V04647cdc-5f78-44ee-b72f-8ae868fa8be3
p2811
F245.995125
tp2812
a(Vec8c2f6e-a73f-4329-93ce-2ce71b792cbb
p2813
F264.176375
tp2814
a(Ve2bf33d0-c3ae-43b7-ad65-6163a80c6448
p2815
F270.55025
tp2816
a(V9a6e70ab-af0f-477a-a5e9-215b51cf3b43
p2817
F276.7935
tp2818
a(Vd890ff13-7f25-4095-bc15-194af4e2d9a1
p2819
F280.868625
tp2820
a(V65d5ec15-3c8c-46c4-9e00-0b487be089cd
p2821
F282.958375
tp2822
a(Vfb35bf28-662f-47d8-bb2d-7e39c56ea17e
p2823
F293.12
tp2824
a(V55f5bec6-9347-4309-8e5e-1c3861662a79
p2825
F293.355125
tp2826
a(V66f4f323-bfe4-40bd-a2ed-5465309e2d70
p2827
F295.105375
tp2828
a(V5af4f0d2-9577-4059-aa79-c870bcdd0a6e
p2829
F298.527375
tp2830
a(V574c2aec-15da-4cd7-95db-b2eb339623ad
p2831
F302.88
tp2832
a(V461097ba-1200-4ff6-ba71-8769b214afa6
p2833
F305.031875
tp2834
a(Vecf43226-c115-4c21-938a-69d3f42a087d
p2835
F311.253375
tp2836
a(V917abf35-81fd-4056-9b9d-7dc7788ac5d3
p2837
F312.058875
tp2838
a(V7449a3b4-15d0-4825-ac59-5c834bfac26f
p2839
F332.538875
tp2840
a(V5578d1d1-838d-4b26-848a-2cd599163da8
p2841
F338.326
tp2842
a(V01b346c5-2f9e-4087-b56b-893e5688b43a
p2843
F339.13575
tp2844
a(Vaf4fec6b-6689-429e-8f65-b9ca958fb543
p2845
F342.87125
tp2846
a(V2b71b02d-816e-4e58-8023-4f33f8578525
p2847
F352.05225
tp2848
a(V3168ec6a-80ef-46df-9e06-faacf7a707a4
p2849
F355.578875
tp2850
a(V858fbd8a-993e-43fa-ba26-1a13c679252e
p2851
F367.93475
tp2852
a(V4dbae837-0d98-4921-b45c-e3be48a1f9b0
p2853
F382.11925
tp2854
a(V0e669af6-ca69-4b46-9e1d-1720c67b1507
p2855
F405.0
tp2856
a(V05a931ba-605b-468e-b7b5-64fe87a443ff
p2857
F416.9405
tp2858
a(Vf35ea328-42d1-4299-be83-4df66d9a58a1
p2859
F465.084125
tp2860
a(V34f12b1d-bb35-48bc-a6c4-ffc4b52f140d
p2861
F476.853375
tp2862
a(Ve25c4aff-c744-4011-8087-935b9c648dca
p2863
F506.514375
tp2864
a(Vf0cd4513-d050-4716-bb9b-8e4ed8b688b5
p2865
F515.55275
tp2866
a(V86283bae-c08d-412a-982b-23498e144758
p2867
F813.244125
tp2868
asVM\u014dhana\u1e41
p2869
(lp2870
(V281efaa7-64c2-4b38-8cf4-4c68f6abef65
p2871
F69.2125
tp2872
a(Vccc6a79f-17f9-4925-a7ce-ca5cee4445d8
p2873
F193.12325
tp2874
a(Vd7112257-77c5-4f52-a284-c73226cad4d0
p2875
F208.613875
tp2876
a(Va34ed83d-8b93-4f81-824f-536d36461a57
p2877
F230.426125
tp2878
a(Vbd344087-834a-4931-8021-284e750e111b
p2879
F264.594375
tp2880
a(V7290c802-19b6-4116-b74f-84fa3f4aa85f
p2881
F277.08075
tp2882
a(Vec8cc6f3-a929-4694-8b0b-86f640c3cdab
p2883
F279.536375
tp2884
a(Vef32c6b2-87ce-4e61-9bbe-d6c46b56372c
p2885
F285.58675
tp2886
a(V0a1c2ae7-e933-458d-afac-fa081338d5de
p2887
F420.1415
tp2888
a(Vf8a59e96-d548-4ac1-bed6-9cee22fcf23a
p2889
F478.197625
tp2890
a(V9bb11760-e39b-4729-b9d1-28ff70666e86
p2891
F527.83025
tp2892
a(V5aa585aa-57a6-4b53-9f5f-299fc2292d82
p2893
F557.191875
tp2894
a(V16c30d40-62ce-4f10-a326-a0654af38eaa
p2895
F615.7845
tp2896
a(Vd449e125-c3df-4e3f-9213-d1839f05abb8
p2897
F618.658
tp2898
a(V9989ddef-2d8a-4114-8976-7e206f918db7
p2899
F712.986125
tp2900
a(V40a84094-102d-445a-bfd9-c32eb24ec9f5
p2901
F815.386125
tp2902
a(V37eaa3f3-4e02-46e6-afb1-180311f8110c
p2903
F905.95275
tp2904
a(Vf9a48fa0-0392-4f00-af73-dfdc5b464744
p2905
F917.577125
tp2906
a(V6c4674b8-d212-41d2-b2e8-91b0b3d0700f
p2907
F955.977125
tp2908
a(V705ebab8-cabd-4d6b-a12e-9fe4e2022613
p2909
F968.90775
tp2910
a(Ved444662-86c2-4a6f-84d9-ec81898c6420
p2911
F1180.0555
tp2912
a(Vbce736e0-4ec1-4b08-b3c2-94c6709ae066
p2913
F1314.8735
tp2914
a(Vf73868ed-462a-408e-9ee6-64d4c6f00e9e
p2915
F1456.979625
tp2916
a(V8bb04922-2421-47cc-b464-7d556c91a952
p2917
F1536.5225
tp2918
a(V21b210ec-6161-47e6-96fa-64a8bdcfadc9
p2919
F1886.56325
tp2920
a(V907858a5-ddd3-4647-af06-2c1fb88cea3e
p2921
F1893.459625
tp2922
a(V24566e6d-8ea5-40ed-9b6d-aabc9a2882f0
p2923
F1933.662125
tp2924
a(V662dbd9a-6858-4899-9369-8079c6c22935
p2925
F2162.16925
tp2926
a(V521113d7-9f91-4adc-9445-7dc665d03659
p2927
F2587.010625
tp2928
a(Vdc1d1aa8-0ee2-4d2b-a506-c62fa00779ea
p2929
F2596.846875
tp2930
a(Va5bd8893-27f6-4abe-9091-d11a70a0de31
p2931
F2653.022125
tp2932
a(Vff71cc92-c19d-4788-9754-709cdbceb1c8
p2933
F2855.889
tp2934
asVM\u0101\u1e37avi
p2935
(lp2936
(Vb9567cb3-ba02-40da-9abb-4c591e831559
p2937
F296.986125
tp2938
a(V4d74dbb4-33ad-4a55-84bf-796b962c4ffa
p2939
F328.516
tp2940
a(V8c005924-f08b-4e1d-ad25-91193b1f3589
p2941
F375.71925
tp2942
a(Vec952d64-e89f-4226-a545-231f70671df8
p2943
F375.71925
tp2944
asVNa\u1e37inak\u0101nti
p2945
(lp2946
(V4aff200c-1415-4b41-9ecb-6b3fff9074c1
p2947
F384.914375
tp2948
a(V880ed997-ebb7-4d68-a7f7-c25af8cac019
p2949
F435.5135
tp2950
a(V9a5d3e5d-fe71-4227-a80e-a83f144716ee
p2951
F915.0955
tp2952
asVKar\u1e47\u0101\u1e6daka beh\u0101g
p2953
(lp2954
(V46848888-11b4-4f27-bed9-a64ee00df68e
p2955
F222.87675
tp2956
a(V4101f83a-d3e7-4efb-bd1f-66308cd61c09
p2957
F321.724125
tp2958
a(V1fc05a3b-49fd-4e41-8494-ae7a07364632
p2959
F327.497125
tp2960
a(Vfa63cfc8-3b27-49b1-bca3-6e10f2edf328
p2961
F386.769
tp2962
asVG\u0101nam\u016brti
p2963
(lp2964
(Vbb5f0b18-833f-437c-a7e8-80d6c5daf2fc
p2965
F508.395125
tp2966
asVHa\u1e41san\u0101da\u1e41
p2967
(lp2968
(Vaa685286-9e95-4bd7-9a6e-5eb0053f4cc2
p2969
F139.702875
tp2970
a(V1efd2fae-c039-452d-8af3-d6301aa9254a
p2971
F243.9315
tp2972
a(V2fbfd411-f0fe-4315-bd9e-89a2af637734
p2973
F280.241625
tp2974
a(V4196df36-0105-400f-9735-955ad7eb5d79
p2975
F364.0425
tp2976
a(V3a66b475-c453-4cc0-8a41-a3b618052172
p2977
F378.436
tp2978
a(V597705e5-81c2-4d08-b0a4-f05f99bac031
p2979
F608.26125
tp2980
a(V4085ebbd-5b6f-4b99-bf1d-666ff45ecdaf
p2981
F680.098
tp2982
a(Vee27cba4-5aa9-44b8-8fd2-cb5d874bb928
p2983
F820.715125
tp2984
a(Ve159ea42-771b-43f4-90da-a2172e2fd0c6
p2985
F875.99025
tp2986
a(V7a924eda-724f-4162-b0ce-f8e569d8986d
p2987
F1970.70375
tp2988
asVN\u0101sikabh\u016b\u1e63a\u1e47i
p2989
(lp2990
(Vd86867a1-2809-4b36-b20b-1fd332d4c387
p2991
F258.06375
tp2992
a(V872e7917-6f4e-4ca3-a4a6-fbb7229b8021
p2993
F291.0825
tp2994
a(Vb0144620-c363-44e0-83ca-dac4823aa62f
p2995
F893.988625
tp2996
asV\u015aankar\u0101bhara\u1e47a\u1e41
p2997
(lp2998
(V880e82e7-11c7-403b-a947-ca4e89f1d3f0
p2999
F110.146375
tp3000
a(Vd442ebd3-4ef8-46c6-aebd-0631ca8cd28b
p3001
F167.07925
tp3002
a(V29bdb2c9-abed-4016-be70-44cc9cff7c38
p3003
F180.898
tp3004
a(Vd3c7386f-99c9-4f8a-997a-161bd4512f01
p3005
F192.548625
tp3006
a(Vdb1389c7-4610-473c-95f9-1a2fabca4fa2
p3007
F228.022875
tp3008
a(V5eb580e8-faea-4082-88c8-e9e3b73779ec
p3009
F250.93225
tp3010
a(V94a12dd2-317e-483f-b192-7d7446208dcd
p3011
F353.619625
tp3012
a(Vf2946bb4-e863-422c-9555-47842cfb0dd7
p3013
F362.653375
tp3014
a(V9db9ebab-4238-4776-8531-6221547e2cb5
p3015
F363.8
tp3016
a(Vb4d8b61a-85ef-41c6-86cb-bc787be70bce
p3017
F370.050625
tp3018
a(Vf02dca27-cc74-4776-8fb8-dd1674e00434
p3019
F484.466875
tp3020
a(Vb8bf8bff-7570-4591-b819-e3182ea45515
p3021
F539.693375
tp3022
a(V34954764-c897-48c6-b8d2-f50b682e29d8
p3023
F582.11275
tp3024
a(Vc589961a-1db4-49a3-a6c7-bbee6fd3eb1c
p3025
F760.03275
tp3026
a(V8a34513f-b9f2-481f-98be-f9dd2d5bb7de
p3027
F805.72075
tp3028
a(Vc0d64205-be55-4c68-ad75-15e45182b01c
p3029
F826.36
tp3030
a(V15694f58-98c5-4228-bcb9-128247417dc1
p3031
F828.551875
tp3032
a(V9c36ca4c-f107-44fd-b01d-52fd165b825a
p3033
F1084.342875
tp3034
a(V82631bf1-f5ce-4798-b2d1-7cb7d7491575
p3035
F1232.48325
tp3036
a(V9b206d85-4d3e-4309-a3f8-77af6b2bb044
p3037
F1373.205
tp3038
a(V64d28aaa-8556-4c3a-8990-ef8d76d320a5
p3039
F1384.80325
tp3040
a(V09da4438-b10c-470a-9b8b-a8012c8098ec
p3041
F1389.9755
tp3042
a(V8b217b4a-85bc-47eb-9ff5-c5ed1b087810
p3043
F1390.315125
tp3044
a(V390b4193-5b59-41cd-887b-02a81132ce4f
p3045
F1401.678375
tp3046
a(Ve192bf26-c5eb-477a-9899-406732a7893c
p3047
F1423.778
tp3048
a(V37476bbe-b180-415d-8368-af2c21d1b190
p3049
F1559.71925
tp3050
a(Ve428c398-aa5e-47b4-9b8b-419807504d5b
p3051
F1717.133125
tp3052
a(V8e3275a9-775f-4bf0-895f-b98491f6d97a
p3053
F1777.97225
tp3054
a(V8e31cd33-0143-4357-83cd-31c87443055d
p3055
F1811.278375
tp3056
a(V2922757b-5a42-48b9-9f2e-7a4ae6b6073c
p3057
F1817.391
tp3058
a(Vdc885903-1ee0-418a-9f49-6abd0923cd41
p3059
F1826.82125
tp3060
a(V507dee76-e260-469e-a4a8-122e69168333
p3061
F1840.274375
tp3062
a(V938abacd-5797-46d5-9b70-5512ef4d2dac
p3063
F1903.62125
tp3064
a(Vce5cdc1d-d2a5-4bcb-ada9-ef195fa95c08
p3065
F2196.19275
tp3066
a(V1e2853d7-a6e5-4d29-9393-5899974009e4
p3067
F2201.365
tp3068
a(V76529cf6-c9aa-451f-8b1c-cb0028b26d9a
p3069
F2235.013375
tp3070
a(V2a4adff1-307a-47e6-bf24-024eff1768f7
p3071
F2357.60325
tp3072
a(V7487a3e5-3eb8-417c-b27f-92a9c491b3af
p3073
F2780.493375
tp3074
a(V7024db12-6018-4cc0-a898-57e616a58794
p3075
F3348.7935
tp3076
asVKa\u1e37y\u0101\u1e47a vasanta\u1e41
p3077
(lp3078
(Vc49e9bf3-b571-403b-b0ad-55c5959595b4
p3079
F210.938875
tp3080
a(V4dabf6cc-9a33-4661-88b6-6402186e66b8
p3081
F377.365
tp3082
a(Vd0de2a85-3313-4ca5-be70-6efc38f484e0
p3083
F389.0155
tp3084
a(V536f0746-a32e-4627-9b4a-d3af07b8b9a6
p3085
F443.167375
tp3086
a(V67c31fc9-6ba8-4d1b-a8e9-149db39d9dad
p3087
F483.03025
tp3088
a(V3c91e959-5292-4b7a-a5c7-36bb77684169
p3089
F969.195125
tp3090
a(Ve6eeb05b-ce52-4938-acc4-11fe59ed86f6
p3091
F1291.076
tp3092
a(V6beaf1f7-66e9-4ed7-9805-d32b694108bd
p3093
F3245.087375
tp3094
asVG\u014dpik\u0101vasanta\u1e41
p3095
(lp3096
(Va11a6508-4b09-4c12-a581-49d542a45839
p3097
F221.884125
tp3098
a(V5ea1679e-16f6-4c4c-a7b9-dd37ab65ad10
p3099
F262.582875
tp3100
asVSarasvati
p3101
(lp3102
(V04e8c647-b74d-4ad9-8986-fa2a0bb91785
p3103
F357.38125
tp3104
a(Vfc3b8f5d-d05d-44d5-91a8-c3d7deddb6df
p3105
F1250.4555
tp3106
asVKathanakut\u016bhala\u1e41
p3107
(lp3108
(Vcdfc4999-dcc0-4a7c-984f-0b3a4d1a482b
p3109
F251.495
tp3110
a(Vf804de59-5bd7-4658-9c79-b9a975e72f00
p3111
F332.573375
tp3112
a(Vc7fc20f8-6d40-40a5-9be7-78c6addfcff9
p3113
F404.5845
tp3114
a(V5a9f6d70-00b2-43e7-ac1e-61bb06bc5c3b
p3115
F709.564125
tp3116
asVBahud\u0101ri
p3117
(lp3118
(Vd6a4911f-ea7f-4023-8b40-cf8ad5c4ba5a
p3119
F250.697125
tp3120
a(V23bafc67-85c7-4fe6-9565-be4fe5df3027
p3121
F263.5635
tp3122
a(V6380e56b-4430-4a10-ad73-173d2a2b2df7
p3123
F287.853375
tp3124
a(V4bbb3e2d-ca7d-4a84-b3ab-4b83ae854d7e
p3125
F320.38675
tp3126
a(V4bab0121-65ef-4de3-8547-09f34ac1336a
p3127
F335.2555
tp3128
a(Vdfc3797b-8506-4321-8089-968f125ab9ce
p3129
F534.413125
tp3130
a(V4105e310-cc91-4c57-b0a9-37085f3903a6
p3131
F708.989375
tp3132
a(Vd233ea79-2606-4588-a791-bbe5d88b80c4
p3133
F1003.076
tp3134
asVM\u0101y\u0101m\u0101\u1e37avagau\u1e37a
p3135
(lp3136
(V670522f4-a067-4a0c-a293-beb6254b0395
p3137
F290.298875
tp3138
a(Va983defb-e6bf-43c0-8a13-5d4612794976
p3139
F346.462125
tp3140
a(Vb45961aa-9f9a-4f07-ae72-207135d3a679
p3141
F352.418
tp3142
a(V1e3e10ad-93ed-439e-85b6-de67cd362d05
p3143
F451.68325
tp3144
a(Va5bc13d6-86be-4465-a9a0-4f0430d61885
p3145
F510.589375
tp3146
a(V57b2324e-f4c3-4b4e-8c03-ff985e29dd7b
p3147
F642.61225
tp3148
a(V6c7fb3ac-bc14-4310-8193-8c674502ea5d
p3149
F662.4915
tp3150
a(V3f3e341e-38d7-4479-8780-359f8e554195
p3151
F670.537125
tp3152
a(V225e1609-23af-44af-a360-5e1f5518caae
p3153
F710.687375
tp3154
a(V7e035042-1d43-4123-9cb6-f749166122bb
p3155
F713.43025
tp3156
a(V1587bdd5-60b6-481e-9a30-60525607850f
p3157
F756.95025
tp3158
a(V2611e0fd-7c4c-4fe2-8c35-d4dcde7a7962
p3159
F772.858875
tp3160
a(V829df365-78bc-4157-9346-5a3b39bf12a5
p3161
F828.76075
tp3162
a(Vb27edf77-cc95-46eb-9004-7ca3663d372b
p3163
F903.157625
tp3164
a(V68f26dd3-5974-460f-b43c-31a90cfe9b54
p3165
F1025.358375
tp3166
a(V88166f7e-a85d-4c7a-91ec-2f16831b7e79
p3167
F1331.069375
tp3168
a(V6f5c24f4-e570-436f-a8a9-b2a3d74a34d2
p3169
F1355.8335
tp3170
asVDarb\u0101r\u012b k\u0101na\u1e0da
p3171
(lp3172
(V6f2504c0-3b3a-4169-a586-7e139a1ee7ef
p3173
F187.35025
tp3174
a(V9d1a6019-cafe-40a0-9230-b0c2cfa6d216
p3175
F211.80075
tp3176
a(Vd8e9f718-e6d4-4ea2-96ab-df7a5baad6e4
p3177
F247.876
tp3178
a(V0a72f814-6fd5-4527-a3f4-ea5bb58f75e7
p3179
F305.554375
tp3180
a(Vee3ab41c-9a78-4882-96a4-7ceb37dca4b5
p3181
F317.28325
tp3182
a(Vf9b8fa99-8f30-46a5-884c-a246f553afd3
p3183
F344.006625
tp3184
a(Vbd10024b-67cf-4628-a017-dfc35cc32e6e
p3185
F1516.669375
tp3186
a(Vdbe84e2d-03b6-41e4-862b-bc4946f16b4b
p3187
F2369.619625
tp3188
asVJanaranjani
p3189
(lp3190
(V9fcb6667-ce79-43a5-96ad-befe4abfdeba
p3191
F383.791
tp3192
a(V7fef0800-e932-4969-b5d8-97fcc049408a
p3193
F447.16
tp3194
a(V796326aa-4b24-46d7-a8ee-701c59e990e5
p3195
F614.66125
tp3196
a(Vda8d9f8b-3686-45c0-a19a-4775fc5f86e4
p3197
F799.465625
tp3198
a(V2f8e59fe-53ff-4289-be3c-42550762ec41
p3199
F1695.582125
tp3200
a(V6e491167-eacd-47f1-9d15-c44bb19121f2
p3201
F2062.0
tp3202
asVKaly\u0101\u1e47i
p3203
(lp3204
(Vd079504c-1caa-4111-bb17-e2454a43f942
p3205
F149.493375
tp3206
a(Vd25f460b-3e95-406c-bb65-8c1969e2c49c
p3207
F183.745375
tp3208
a(Vb1c56032-8288-4e73-b942-c7b074ebddce
p3209
F215.82375
tp3210
a(V9af32b62-da33-4df0-aed0-f55fb60dac46
p3211
F317.518375
tp3212
a(V1e93af91-fe4c-467c-b3ce-9885d78fcf7f
p3213
F349.1005
tp3214
a(V30ed13b0-58ac-48af-b8ac-f2c14ddbd71a
p3215
F351.36
tp3216
a(V5aed17d9-6868-4420-803a-edc882c90be2
p3217
F376.56925
tp3218
a(V955418c9-1ebf-48db-a8b3-ea5121efe8f7
p3219
F399.30775
tp3220
a(Vefdf3faa-71aa-47f9-a007-7519539e7ec2
p3221
F435.382875
tp3222
a(Vf703d83f-374c-41e7-a9fe-92b10c5678cf
p3223
F438.7005
tp3224
a(Va9378b83-15b8-4cfd-a5c9-0b461c3e7279
p3225
F444.0555
tp3226
a(V2d17101c-7109-4754-8d01-14de67b906d4
p3227
F474.514375
tp3228
a(V33ba5c1c-92b9-4723-9b35-5739b5677371
p3229
F497.606625
tp3230
a(Vc5976719-6376-4522-b62e-1cad0136aebc
p3231
F513.22775
tp3232
a(Vb6af2720-6beb-454b-ba8c-f912ea8ab27b
p3233
F549.773125
tp3234
a(Vae79b563-7d5e-4c31-b2f9-7cf7db1da1c1
p3235
F561.92
tp3236
a(Veb3bdb93-f792-4f96-9491-2750c054d3a7
p3237
F568.26775
tp3238
a(V779f0784-1ab1-42b3-b3c8-08ba644b596d
p3239
F656.274375
tp3240
a(V47b1d659-6309-4fe1-95a3-72635020379f
p3241
F686.498
tp3242
a(Vda9e8965-b7be-4430-aaaf-8e067d2aa61c
p3243
F692.19275
tp3244
a(V30321cf0-c89d-4fac-9e9c-da24bb498af0
p3245
F792.6335
tp3246
a(Vb41e7788-4537-44d3-9166-880e0424709e
p3247
F936.56825
tp3248
a(V0e11eaca-2783-4d25-b601-cd5cbceea627
p3249
F984.659625
tp3250
a(Vfea6b554-3d34-4cd2-8fe0-1934b18eac16
p3251
F1015.693125
tp3252
a(V9c4395d8-53a0-4a9d-b88e-82f8110a7673
p3253
F1020.290625
tp3254
a(Vf8fbe77c-5708-43e2-acdd-098ac99551c0
p3255
F1173.942875
tp3256
a(V3b904963-baa4-49e9-8453-781bbfc72e2d
p3257
F1235.7225
tp3258
a(V8989ecc3-3b02-4e9a-a5ee-5b343e32276b
p3259
F1241.391
tp3260
a(Vc4ccbd6f-c624-4356-8a9f-79906ea8562a
p3261
F1257.0645
tp3262
a(V1f541dfd-2396-48d6-a371-ccaa9c78ca07
p3263
F1274.59275
tp3264
a(Vef8d68f0-06c2-4eff-82d8-1263ce45f378
p3265
F1376.57475
tp3266
a(Vb877168b-824a-4b55-8aae-54731375d514
p3267
F1378.92575
tp3268
a(V8fed9a77-2f4c-4a26-b0f6-6919fd469e2b
p3269
F1509.78725
tp3270
a(V8c04166b-24af-4b51-8eda-7c9fd19f0096
p3271
F1551.046625
tp3272
a(V9c8810e5-178a-46df-a619-a89a547c53dd
p3273
F1574.791875
tp3274
a(V41ad9d77-926f-43e5-98c0-1f3e881350cc
p3275
F1713.188625
tp3276
a(Vb1810ae7-f257-4d5b-9718-b6eee33f6532
p3277
F1726.77225
tp3278
a(V3e1b5364-75e3-4726-ad21-57051426ef1e
p3279
F1801.04
tp3280
a(V0a0b568c-bfbb-49a6-a762-d12c4f11f679
p3281
F1841.502125
tp3282
a(Va03969da-2995-4991-9634-2b8904d4a2ad
p3283
F1848.58125
tp3284
a(V0fa5acc0-b246-4589-8249-762a05ff98e7
p3285
F1891.18675
tp3286
a(V0741937f-942b-48b7-8fa7-570a060f89bf
p3287
F1945.730625
tp3288
a(V86655ae3-07da-4f42-90b1-02562679318a
p3289
F2062.12
tp3290
a(V507c8fee-0844-4602-82d9-2cb131d06c84
p3291
F2392.346125
tp3292
a(Vf763a45e-de3e-4c9a-a2e7-c625e6c4c512
p3293
F2478.106125
tp3294
a(V19b4b0aa-a8fd-43d1-be38-4119abf7f8ca
p3295
F3331.99675
tp3296
a(V94ddddb3-892f-46e0-a159-735794eb0871
p3297
F3350.569875
tp3298
a(Vf496b203-bb5d-47b2-ad8f-8e2c4a9e5da5
p3299
F3410.102875
tp3300
a(V2ea6cabb-a422-4c1b-8f0b-752cbe68a5d4
p3301
F3410.102875
tp3302
a(Vd5d2101c-8602-498e-af4a-900bdce676ee
p3303
F4004.83275
tp3304
asV\u015a\u016b\u1e37i\u1e47i
p3305
(lp3306
(Vac9b8317-9f7a-4b86-bf64-c4ea7151f518
p3307
F1757.884125
tp3308
asV\u015aubhapantuvar\u0101\u1e37i
p3309
(lp3310
(V20694e96-0894-4e52-bb90-cbd32a92c08b
p3311
F338.756
tp3312
a(Va8075fe0-5b41-4902-aa20-4f84ec0ff096
p3313
F338.756
tp3314
a(Vfe7f2e32-e906-48ea-ab3f-dacc1885fc90
p3315
F419.578875
tp3316
a(V2cf20c26-f620-431f-9652-b0e8c1605549
p3317
F1715.3045
tp3318
a(Va6c74d72-29c5-4ea3-b3bd-198901643255
p3319
F1806.23675
tp3320
a(Vaa407fe2-0c82-47de-a1fd-7b0f7d94b6e7
p3321
F1814.54375
tp3322
a(V6830c722-e191-4fda-905d-8973a465e9b1
p3323
F1832.56825
tp3324
a(V8a6272cc-1c56-415b-b578-05bfac3ca55a
p3325
F1967.595125
tp3326
asVB\u0113ga\u1e0da
p3327
(lp3328
(V2fc3e59f-9caf-40f2-a2ee-a5b85fa51695
p3329
F194.61225
tp3330
a(V2f274b05-9e9e-4faa-a61f-8f5d8cb6f89f
p3331
F220.081625
tp3332
a(V09ff223f-788a-40ed-b135-13c7b07aefe5
p3333
F230.478375
tp3334
a(Vec70692e-3592-46ec-a55a-31a8a6d92e0e
p3335
F304.0915
tp3336
a(V110ab5e5-3fc6-4625-acf9-c9e22f26961d
p3337
F316.813125
tp3338
a(V8e3c9062-217d-4a5d-b7f0-cd075a55603d
p3339
F330.1355
tp3340
a(Vd7892139-c9de-4eb7-a9ac-483a5505685d
p3341
F343.484125
tp3342
a(V5e1fd7e7-0a4c-4088-9ab9-572b35199132
p3343
F346.88
tp3344
a(Vf4c81624-5c23-4e26-a943-bfe12acd30ce
p3345
F367.41225
tp3346
a(V204735ab-cba7-49f4-9d7c-9e08dcadf6be
p3347
F394.18775
tp3348
a(V189d1ce0-1c6d-4038-b28f-d55245039fcd
p3349
F400.405
tp3350
a(Vcbaaed89-0227-431e-a700-08dcd9d099c2
p3351
F432.14675
tp3352
a(V1ebe0640-b9e4-4bc8-b8fd-d1b06b2ac4e6
p3353
F446.511
tp3354
a(V3c403210-caef-4ae9-b02e-6832c11d7d82
p3355
F449.828625
tp3356
a(V1c3d8526-6692-46f5-a00a-92dddbead9ff
p3357
F458.5535
tp3358
a(V4ed4ea00-9642-4782-b910-b0b2eec5ac0d
p3359
F464.405
tp3360
a(V4669d3e9-73a4-4fee-a2a8-4895c63f07fc
p3361
F475.219625
tp3362
a(Vb0be386e-cfe3-481b-95a1-ca48b0f2ed4d
p3363
F491.02375
tp3364
a(V6f54d53a-7a26-4bb1-9d82-bbe5d93776f0
p3365
F501.05475
tp3366
a(V5ef41707-3834-44e8-a69d-547a0a97ec57
p3367
F502.64825
tp3368
a(Vfa539372-1c38-41a9-8790-91354ece9135
p3369
F528.00025
tp3370
a(V8155fa24-75cc-4350-ba11-56868c5aedce
p3371
F582.24325
tp3372
a(Va0194582-020b-465b-b61e-c9fc03a8e09a
p3373
F789.237625
tp3374
a(V1ae2320f-0f74-4ee1-8f0b-43270ff93242
p3375
F1134.210625
tp3376
a(V84748fbe-f845-4e20-a366-a226318af4c1
p3377
F1253.2245
tp3378
a(V561a053f-0f22-4415-bb79-5ec19574f2fc
p3379
F1286.75375
tp3380
a(V51e39d29-8dc6-4623-910e-40baba083c96
p3381
F1348.31025
tp3382
a(V5c24dc68-51e2-4ce5-a7c7-74f160482e2b
p3383
F1434.3315
tp3384
a(V2f9b5ddc-f253-46be-a316-36f9ce111b9e
p3385
F1730.769
tp3386
a(Vae157796-b8d5-4baf-ab2e-d200833bf110
p3387
F2026.646
tp3388
a(Vaab8c03d-2a70-4ae8-8981-18ff2a165c8d
p3389
F2096.48325
tp3390
a(V2f792bd0-4788-4227-8540-354bb7be9365
p3391
F2438.739625
tp3392
asVMalayam\u0101ruta\u1e41
p3393
(lp3394
(V24a3e266-aa85-40bd-9760-0101593519d0
p3395
F463.229375
tp3396
asVCint\u0101ma\u1e47i
p3397
(lp3398
(Vc3fcd1dd-9dbb-4902-9af7-d1fefce853d1
p3399
F307.173875
tp3400
a(V871bc276-e7f8-4088-8f69-fe3c8e3617c9
p3401
F465.92
tp3402
a(Vc356b0d8-176c-4022-ab67-c2a2caa4f3c9
p3403
F548.62375
tp3404
asV\u015ay\u0101\u1e41 ka\u1e37y\u0101\u1e47
p3405
(lp3406
(Vef7764ce-c6a5-4b53-9c7a-c2ea4fd90c4f
p3407
F314.72325
tp3408
asVJaya man\u014dhari
p3409
(lp3410
(V8a9d6704-00f8-4864-8beb-d3f72d0012bf
p3411
F268.669375
tp3412
asV\u0100rabhi
p3413
(lp3414
(V0ea55418-3996-4e78-ad76-336b24d2fafa
p3415
F158.955125
tp3416
a(V41e3e253-0d97-4ded-9e3b-7bd7e9089098
p3417
F202.29225
tp3418
a(V939a1765-cd1e-4ac9-be26-7e7c14a28eb8
p3419
F412.0555
tp3420
a(Vd21abaae-5690-48e0-b01a-8c574f95d3d0
p3421
F413.49225
tp3422
a(V7488ca46-496b-471c-adb8-3a6b16de1533
p3423
F475.219625
tp3424
a(V62b51afe-dcb5-4634-83a6-26671fc81a04
p3425
F527.0205
tp3426
a(V28573055-8fe7-42d4-8ae8-bbc3871c7881
p3427
F534.308625
tp3428
a(V96b59d63-6930-4baf-a7ed-9d8970462933
p3429
F853.76
tp3430
a(Vd6d9f6e9-102a-46ac-a57c-091f4763d0db
p3431
F1020.10775
tp3432
a(V971b50fd-606a-4cb5-97ec-3ce0bdfb7b6a
p3433
F1150.145375
tp3434
a(Vb554478d-cefe-46ab-afe6-6651a1e2fd0e
p3435
F1155.55275
tp3436
a(V4600f827-e671-4dd1-8eea-6fd531786297
p3437
F2890.866875
tp3438
a(Vb256707d-5ed3-46c0-9343-6a7cd765a4a1
p3439
F2940.186125
tp3440
asVGhan\u1e6da
p3441
(lp3442
(V0298c72e-5e3c-46d2-abf6-d0559c8b80b7
p3443
F176.64
tp3444
asVDarb\u0101r
p3445
(lp3446
(V31ac1415-9c1c-4192-910f-97d7dbd7f445
p3447
F172.74775
tp3448
a(V7733cf95-578a-4683-bd6b-6e4245cd3156
p3449
F234.997625
tp3450
a(Vfddca7fd-c9c2-4419-a158-e2d95887cb64
p3451
F248.529
tp3452
a(V2212dad9-7c86-4f19-b5c6-2c3b4005350b
p3453
F315.428625
tp3454
a(V76bca21d-6dcf-4e96-912a-f50437aa3db3
p3455
F333.557625
tp3456
a(V0a33478e-d028-4f04-83a0-a9363adae895
p3457
F372.218875
tp3458
a(V6636c32d-7c52-4f48-8e3a-dd8771060182
p3459
F507.45475
tp3460
a(V220d569b-055d-46c7-80e0-f42fd70dff96
p3461
F511.556
tp3462
a(Vb16bea3a-214e-4516-aba3-ed26546fc6f7
p3463
F614.844125
tp3464
a(V0f03a44b-51ad-4e20-8583-bde6e799056e
p3465
F627.7225
tp3466
a(Ve151896b-73ff-402f-a1bd-f64d5d99d3a6
p3467
F858.906125
tp3468
a(V3f47f9f4-6eea-4a20-9cfb-f25d28a01f61
p3469
F943.4645
tp3470
a(V72caf2f7-fc01-4fba-82a4-9346d682de51
p3471
F1224.0
tp3472
a(V49fe867d-acea-4a58-af33-dab0ee61a516
p3473
F1908.976375
tp3474
a(V0276ccc2-cb4a-411f-89a6-a40b224ecdfe
p3475
F1987.9445
tp3476
asVKalga\u1e0da
p3477
(lp3478
(Vdd2a2d35-350e-4913-8d47-446dac5030a2
p3479
F260.19375
tp3480
a(Ve8fa4a7e-a782-4ef4-a1bb-d683ae2f4afe
p3481
F271.269625
tp3482
asVK\u0101pi n\u0101r\u0101ya\u1e47i
p3483
(lp3484
(V0178ecfa-a8f4-46c0-a50d-f1662a473779
p3485
F194.27275
tp3486
a(V0c6c05e0-38ec-4cbb-8f61-47a968bac50a
p3487
F243.957625
tp3488
a(Vfed17146-e215-4ff8-a0f0-8bbab9bf9be4
p3489
F270.576375
tp3490
a(V4534c55d-2930-447b-ba92-f50d449c111e
p3491
F284.969875
tp3492
a(Ve7a379b2-2aa7-45fb-b2df-ba5b716199a5
p3493
F291.605
tp3494
a(V65e7da10-8a1c-4498-98f3-9871e77ff1f4
p3495
F307.435125
tp3496
a(V6ace5931-c2d4-49fd-9f2b-530198d1789d
p3497
F311.275125
tp3498
a(V24b6edfb-f97f-4cae-85c7-97f5acd7ff59
p3499
F446.66775
tp3500
a(V0acd3ef0-117b-4a32-9433-8056c3295e6d
p3501
F743.5755
tp3502
a(V05cbb6d7-c281-4c16-84f7-1ecdca881a38
p3503
F925.44
tp3504
asV\u0100bh\u014dgi
p3505
(lp3506
(Vd2029d27-2e5f-42d1-9718-debf165f74fd
p3507
F164.649875
tp3508
a(Vc33c722a-d034-40b2-be2a-188f830ee976
p3509
F207.948875
tp3510
a(V1add4bd7-d0cc-4116-9c8b-1ad6935662e3
p3511
F245.106875
tp3512
a(V26ee6cca-736e-4af8-9e6a-9e216e13d5e8
p3513
F248.816375
tp3514
a(V11235e11-2526-4c9f-9b8d-f85eb4e3ef62
p3515
F299.859625
tp3516
a(V828dc6af-a9fb-4f25-9974-abd207cb8b22
p3517
F304.24825
tp3518
a(Vff1bb4d8-b397-45f4-b464-e54f7ca81bf6
p3519
F317.70125
tp3520
a(V6fe47817-025c-4dcb-8374-d8852010e1d5
p3521
F318.955125
tp3522
a(Ve35be0d3-a32e-489a-a9e0-abf3ae122686
p3523
F322.194375
tp3524
a(V70c49f3d-c339-4c4d-b29c-e38120711322
p3525
F360.933875
tp3526
a(Vdfdde5cd-7950-41fe-8f1e-71bb528994ec
p3527
F377.274625
tp3528
a(Vd2387cfd-6996-4201-a4c0-06c37043e5a3
p3529
F393.378
tp3530
a(Vd42249e4-8889-4b34-a963-c99a674ddcf0
p3531
F451.213125
tp3532
a(V43737160-f73a-4cc9-bfd6-be3a77600663
p3533
F506.044125
tp3534
a(Vecb3c485-ee24-4035-8a8a-3629b0a87673
p3535
F848.222125
tp3536
a(Vf8c19166-34d9-4cc7-a7ab-3f128faf282f
p3537
F906.109375
tp3538
a(V970ac2a2-7420-44b2-9441-488aa7b14941
p3539
F923.115125
tp3540
a(Vba46b8af-7c0d-4c11-b9a9-b6f27866a21e
p3541
F957.56
tp3542
a(Vd3f8d20e-29ff-4bce-808a-4a977e65df0b
p3543
F968.306875
tp3544
a(Vd6abd926-f276-47a4-a4c9-d348836848ee
p3545
F1037.505375
tp3546
a(V8cda14d7-1c2a-442b-bd20-aa842a78535e
p3547
F1050.096375
tp3548
a(Ve9fd6b3c-3fa4-4052-9d2c-41931b317117
p3549
F1054.66775
tp3550
a(Vcaa8efc0-cc5d-4cf6-9a83-96ca53721ffe
p3551
F1686.308625
tp3552
a(Ve9869f46-723c-4339-88c7-07ebdfd61f56
p3553
F3463.053125
tp3554
asVCencu k\u0101mbh\u014dji
p3555
(lp3556
(V3a98e6b6-ba3f-4642-b5b0-159560e1cbd6
p3557
F237.609875
tp3558
asVJaganm\u014dhini
p3559
(lp3560
(V9b716429-a8f4-4995-8161-245a7fa4efe2
p3561
F161.567375
tp3562
a(Vf1594d6b-807c-4262-94aa-e155f8be712f
p3563
F205.47925
tp3564
a(V0c1c32c1-3a89-4ad5-a51f-d1ad7d69210f
p3565
F265.95275
tp3566
a(V08cbf900-43af-404a-b40c-c64a99f43518
p3567
F266.672125
tp3568
a(Va62e2ee4-aa9d-4b26-b62a-ac52fa68a3c7
p3569
F266.784
tp3570
a(V3305b93e-5317-48ad-acac-e6ca25c4cd1f
p3571
F278.02125
tp3572
a(V1a541e9c-8abe-408e-a815-b82392e16b4d
p3573
F325.79925
tp3574
a(V9f26389e-a656-487c-9064-c4db160508f8
p3575
F325.79925
tp3576
a(V50a1bca8-bc3d-4e20-b2a5-db94bdd29aad
p3577
F363.755125
tp3578
a(V64601f85-3a93-4df1-ada7-de43872c0d9c
p3579
F368.7445
tp3580
a(V9b7777a8-5e20-4053-b241-5e5b10802b2f
p3581
F389.355125
tp3582
a(V27ea8b05-0719-4086-96e9-5c1933ea202f
p3583
F538.671
tp3584
a(Vbd81085d-43fb-4f53-ae33-7291ce7eefac
p3585
F558.916
tp3586
a(V5a07c205-5582-404e-82b5-654272f23ccd
p3587
F581.0155
tp3588
a(Vbb5369ad-44ab-4ea2-b50d-3d5cbe22b2e9
p3589
F669.44
tp3590
a(Va8c9b0e3-3656-42da-9527-04dc19b65dc7
p3591
F717.415
tp3592
asVSura\u1e6di
p3593
(lp3594
(V7116a2c8-1659-4203-93c1-ace0720c4033
p3595
F30.473
tp3596
a(V8d9f8fc7-11f4-473a-833b-b3e30b869705
p3597
F121.10375
tp3598
a(Vb2a65965-149c-4d85-81dd-e05b7f54c8db
p3599
F134.257375
tp3600
a(V93727328-a4df-429f-823e-c7cc244bb630
p3601
F139.911875
tp3602
a(V5049fa13-9970-468f-8730-337752967ffa
p3603
F152.68575
tp3604
a(V9aa2770a-c170-4db9-9657-14a74024bc31
p3605
F156.551875
tp3606
a(V20c339f2-4cf3-41bd-b2a3-e6ee73515b74
p3607
F159.0335
tp3608
a(V86eed816-376a-4e69-a81a-da7c5fbea820
p3609
F201.84825
tp3610
a(Vaa2bd43b-4358-4901-b579-c524695bb8ef
p3611
F236.721625
tp3612
a(Vf0d6849a-e4ab-4cd4-840f-e7479b356c9c
p3613
F239.699625
tp3614
a(V713b356f-2936-4c48-aadc-b1a0930be113
p3615
F281.10375
tp3616
a(V0588b9f0-2637-471e-b8a0-f33753aa9edd
p3617
F305.737125
tp3618
a(Ve4ee979e-5c18-4c6a-9d72-4c38e65db26c
p3619
F310.76
tp3620
a(Ve86ad9e2-2b4b-442e-a069-6039d73529e9
p3621
F325.773125
tp3622
a(V1e6adf52-e4e4-4835-9117-4babaa58e9e0
p3623
F326.55675
tp3624
a(V98a033d9-6e2f-49ee-b46a-b5127746c6ed
p3625
F347.86675
tp3626
a(V32a6b005-6be5-4212-88c9-db67ec330724
p3627
F393.548875
tp3628
a(Vcbb02ca0-61e6-4f07-b3da-999ef98e1bb0
p3629
F415.556
tp3630
a(Va724bc1d-0eaa-44d1-ae2a-401c6ae62865
p3631
F427.142375
tp3632
a(Vf8cd99b3-0e2e-42ca-83a4-240d19f15da1
p3633
F446.066875
tp3634
a(V74e4dea1-0300-4497-bdbb-48048c7be415
p3635
F477.28325
tp3636
a(Vc30bb438-8df8-4177-9678-892ffa6bfa33
p3637
F498.70375
tp3638
a(Vbec3b237-0a03-4011-9d8b-394415b0a6b2
p3639
F551.68
tp3640
a(Vfd70ce77-10b4-4a6b-980d-3a1a4c464e68
p3641
F679.0
tp3642
a(Vd5c08a5b-63dd-4fe8-a9ad-c35010698f28
p3643
F893.231
tp3644
a(V25a56baf-53f7-4320-92bc-66157c52f6fa
p3645
F908.591
tp3646
a(V6552cd1a-8dd2-47a9-b77d-2c177c81da97
p3647
F1200.169875
tp3648
a(Vfb46590f-2ebe-4d45-bbeb-143b5d9a1240
p3649
F1745.946125
tp3650
a(Vc29f2085-b51f-4ec6-a977-879538a29549
p3651
F1850.096375
tp3652
asVPa\u1e6dd\u012bp
p3653
(lp3654
(V2b00f431-8ca3-4026-9e57-a19f00b8a4c1
p3655
F721.058
tp3656
asVG\u0101ng\u0113yabh\u016b\u1e63a\u1e47i
p3657
(lp3658
(Vfbe226f0-edc7-4baf-9a55-794734669a01
p3659
F309.577125
tp3660
asVDhany\u0101si
p3661
(lp3662
(V43bd2d62-ded3-4b58-b552-7ec0aefb97b4
p3663
F177.606625
tp3664
a(V6c04eec5-bab1-4609-8058-d03d6783b47e
p3665
F180.218875
tp3666
a(V99f7baf2-78fe-4579-b4ed-b6d7e2257bc3
p3667
F245.289875
tp3668
a(Vfb0996a8-bb19-46e8-9cc3-2732108fc717
p3669
F248.529
tp3670
a(V93c4d80a-0dd6-483b-b9b8-0d3159cc02dc
p3671
F288.15675
tp3672
a(V0797f895-c946-4b38-a19e-0c45537140c4
p3673
F394.475125
tp3674
a(V0237be68-95c7-484d-9801-63205f9ccceb
p3675
F421.59025
tp3676
a(V097f72f8-0fd2-4dd6-ba90-d03d5cbcc534
p3677
F475.219625
tp3678
a(V4bed9a94-ebd7-4c2f-a6de-a630c5bfff1d
p3679
F556.486625
tp3680
a(Vee2284fb-8524-4956-8dfd-0e25d67d7081
p3681
F560.849
tp3682
a(Vcec7730b-e762-42db-bd1f-547466d85711
p3683
F582.269375
tp3684
a(V87023667-033f-4d47-b79d-422f2de075ea
p3685
F691.121625
tp3686
a(V7cd313af-89ea-480e-92a1-e25789a9d076
p3687
F843.729
tp3688
a(V9c93a4de-69c1-4c3e-bf20-5676d39dce38
p3689
F934.426125
tp3690
a(V288ce104-4a50-4822-99d4-94a602353382
p3691
F1077.342125
tp3692
a(Vc90ec119-824f-416b-9da4-231a38aa8e68
p3693
F1342.056
tp3694
a(V7fc949e2-a9b0-49e8-9b26-0eb321d3e31d
p3695
F1552.3005
tp3696
a(Vee7a1164-9886-4a00-bd9d-b2b2c4e71c81
p3697
F1855.791
tp3698
a(V7d3f6f84-a53e-4d4a-bddd-ba472d5a1ab9
p3699
F2092.761875
tp3700
asVKaraharapriya
p3701
(lp3702
(V5c9a2570-96d7-47c9-8370-4f3162e8f899
p3703
F295.28825
tp3704
a(Vc545c852-787d-4ddc-b6a6-07b795fb76e3
p3705
F339.25225
tp3706
a(V38ebd057-ce02-448c-83e4-0cb7938e8288
p3707
F381.1005
tp3708
a(V507cb9b4-36c9-449a-a7e5-31d6b26ca1ff
p3709
F388.179625
tp3710
a(Vba9351a0-e016-4558-a027-122444ca5fb2
p3711
F917.15925
tp3712
a(V72f1c5a9-91a1-4b62-976f-7af979f8c763
p3713
F1201.76325
tp3714
a(V8d335fa7-aa72-4cb5-9454-97d4d2c90278
p3715
F1231.804125
tp3716
a(V9d8a5fd9-0a2d-4411-aff4-ca67698a27ec
p3717
F1305.672
tp3718
a(Vb1068fd2-b87d-41fb-b983-b03a4132ac1c
p3719
F1365.995125
tp3720
a(Vd459f36f-0ec4-4275-8465-9a8fd6c1396d
p3721
F1467.742125
tp3722
a(Ve5c3c2c7-ffde-487e-93f0-de356d719c22
p3723
F1635.84
tp3724
a(V9e8c7a36-e6ec-4611-861e-081868316892
p3725
F1692.578
tp3726
a(Vc39e5636-3e44-4913-bd25-73a28acbcb72
p3727
F1716.767375
tp3728
a(V37babbe7-6d94-4181-b642-e0b73584d0c3
p3729
F1921.619625
tp3730
a(Vb9f57ed1-6e1d-4416-8d26-fd5eab8821e3
p3731
F1928.542125
tp3732
a(Vafa86ff8-0dee-42e9-a5a1-8f62efc1d77f
p3733
F2238.04075
tp3734
a(Vd87e2126-61bb-4226-b414-c16fb785bbce
p3735
F2336.0
tp3736
a(Vd485028d-a42c-4a03-a5b9-c927b9eb8b85
p3737
F2541.78075
tp3738
a(Vb788cb93-770b-4dcb-bca3-1ebaa3ecf38a
p3739
F2620.578
tp3740
a(Vf82168ed-a0b1-4937-82d6-49c162609e10
p3741
F2826.422875
tp3742
a(V2c9b2068-8f64-471e-be2f-fccae2452d5c
p3743
F3179.36325
tp3744
a(V031fa4da-725c-4ff9-9b75-6f63286f2ff5
p3745
F3252.964375
tp3746
a(V58c2c5cf-b258-4f32-a15a-6a9f2b5acd88
p3747
F3590.478375
tp3748
a(V4bdce886-d7f1-4076-b2c8-ee94096be9e5
p3749
F4023.04
tp3750
asVLalita pancama\u1e41
p3751
(lp3752
(V5c1a6441-b86d-452a-aba8-ec1842f0da8a
p3753
F236.64325
tp3754
a(V1c8a56ec-8c0b-44a3-b046-fa7357faba3f
p3755
F266.933375
tp3756
a(V5374acaa-b4c5-414c-920b-593b6af89756
p3757
F443.55925
tp3758
asVYadukula k\u0101\u1e41b\u014dji
p3759
(lp3760
(V61c3e066-06a3-457f-83e7-92c872727775
p3761
F131.422125
tp3762
a(V62976b60-ccfd-4b2e-8491-2c457407cd8b
p3763
F271.41225
tp3764
a(V2a93c89c-2c32-4738-8df1-684ead3581ca
p3765
F277.316
tp3766
a(V5423fdaf-e914-49e2-ac8b-b52003b374a6
p3767
F308.218875
tp3768
a(V7aa54c2b-0adc-45b9-9a1a-f184abcdf950
p3769
F371.069375
tp3770
a(V29be57a7-c0b1-4eef-9470-a89bab82f8dd
p3771
F481.28
tp3772
a(V442715a3-31f8-494a-a694-9c571e7c38ea
p3773
F493.818875
tp3774
a(Vb9a9e691-9dda-4991-b2c7-d114a56e3ff1
p3775
F611.761625
tp3776
a(Vad5cf4d4-4c08-4509-84d1-2510df9795ba
p3777
F614.66125
tp3778
a(V39dcbd24-412a-4b2d-b287-cfa5166fc8cc
p3779
F665.54775
tp3780
a(V034a6c66-fe23-4801-92fb-45333a8be6bc
p3781
F705.906875
tp3782
a(V693cf96d-d806-47a7-bb7b-6163a6584e9f
p3783
F774.76575
tp3784
a(V2f9db2e1-0273-4b06-850b-66af589b9791
p3785
F865.22775
tp3786
a(Vdd4a77c6-1a5e-4784-80cd-f82e0a53654a
p3787
F1166.053875
tp3788
a(V5c342c56-c07a-4905-89cc-bd5d1151d20a
p3789
F1287.28825
tp3790
a(V0378d6c6-ba74-4457-b276-b0f477d86d00
p3791
F2914.82125
tp3792
asVA\u1e6d\u0101na
p3793
(lp3794
(V1b5320a2-9f72-43f1-866d-e68e1a62d751
p3795
F169.56075
tp3796
a(Vc1ac37ed-c877-4d86-b1ad-ccf1499adc16
p3797
F202.057125
tp3798
a(V47e8ac5d-e78a-4a5f-8681-b491ba15c199
p3799
F202.449
tp3800
a(Vcc3405b1-cca6-40e3-bdf7-34ba49af6872
p3801
F210.49475
tp3802
a(Vcab5614b-b2ea-42fd-b5aa-716472607962
p3803
F280.764125
tp3804
a(V6c6c9860-6fe6-40a0-a30d-d28a8a631437
p3805
F318.72
tp3806
a(Vc8e892d6-02cc-49a7-aec4-48fcffa18a26
p3807
F321.3845
tp3808
a(V324f3ce4-a77c-49ac-a98c-70511169b09e
p3809
F329.63925
tp3810
a(Vdf4ee485-0df2-46ae-9587-7f942dc2ffcb
p3811
F387.396
tp3812
a(Ve9b19186-37a9-4048-855b-5d61446a65b8
p3813
F392.881625
tp3814
a(V843d02fa-7b81-4cfa-a91c-b73a294a7684
p3815
F469.60325
tp3816
a(V8bb870f5-f6b5-4219-8df4-244346508a1e
p3817
F475.925
tp3818
a(V5c1ae6ac-ada7-45df-b807-812a81f20cad
p3819
F479.634375
tp3820
a(V80dac902-168f-49d4-992d-4b62d0aeb7ce
p3821
F488.019625
tp3822
a(V97bf406d-9c22-4307-beae-7bda5ee2e05e
p3823
F603.24575
tp3824
a(V30b167e5-c0d6-4f47-925f-ff5da747fb31
p3825
F632.659625
tp3826
a(Vbbee764d-7406-47ce-821a-a82030b89eca
p3827
F657.711
tp3828
a(V82a3d00c-f1df-4b54-8601-bac26667b1b0
p3829
F731.48075
tp3830
a(V48916e31-9227-4af0-9adc-722f4f6696ce
p3831
F1126.948625
tp3832
asVMeghamalhar
p3833
(lp3834
(V85444d66-fd3e-491e-a6b8-abaf25e419f2
p3835
F515.918375
tp3836
asVVar\u0101\u1e37i
p3837
(lp3838
(V68f2f8bf-c53f-4180-95b1-4ee08a94b7bd
p3839
F366.02775
tp3840
a(V7be85334-e60d-4f9f-a1fd-16ee93dedc6f
p3841
F381.779625
tp3842
a(V14d27ddd-66f3-4687-b3c6-3cd5ebdf4b6f
p3843
F724.441875
tp3844
a(V3ac5984b-6fbc-41b8-8f8a-4a387d6b0fde
p3845
F731.14125
tp3846
a(V46c4267b-f2c8-4fd7-8423-d7cc648395bb
p3847
F752.561625
tp3848
a(V77f42a8e-6e25-4145-a919-0e6f62ae0fb8
p3849
F906.7625
tp3850
a(Vb60b5bb8-fbd6-4bf1-b0de-d927781f5e2c
p3851
F1027.709375
tp3852
a(V6517be19-087c-4292-90fa-e498565efceb
p3853
F1056.862125
tp3854
a(V63bd286d-3c8f-4d61-93b1-46ff49825224
p3855
F1069.92325
tp3856
a(Va9bf3ac1-9110-458c-8a3a-b0b6d9bf3d03
p3857
F1221.511875
tp3858
a(Vde53bd66-536b-4929-88b1-9fe07eaa0121
p3859
F1289.351875
tp3860
a(Vc44b016a-aa9f-48f9-8007-175b7b38bd54
p3861
F1297.658875
tp3862
a(Vafd1f1c8-ecf2-46aa-ac68-09e92d10f071
p3863
F1547.67675
tp3864
a(V09bd5b5f-1b57-4269-aa76-e3bb87471743
p3865
F1595.55925
tp3866
a(V68bcad2f-b0b3-485f-ad5f-7edf9d783551
p3867
F1640.96
tp3868
a(V304d98de-6c75-4ea3-a921-f91da4fcb107
p3869
F2079.268625
tp3870
asVMukh\u0101ri
p3871
(lp3872
(Vc97a91da-176f-4a41-93ac-4db341f62241
p3873
F224.78375
tp3874
a(V20400fc0-0374-4187-9c21-a34ccf491f9d
p3875
F298.370625
tp3876
a(V8ac344a8-627c-4683-a240-47597358f36e
p3877
F342.099625
tp3878
a(V842f4fea-167d-447f-8264-6e0e71745d6f
p3879
F349.831875
tp3880
a(V2b391c7a-ff40-46e8-9eb0-746e5203e978
p3881
F387.2915
tp3882
a(Vd8196b38-44a4-4a7d-9feb-4619f798023e
p3883
F394.91925
tp3884
a(V8f66f053-eac8-4fce-a390-78a24d32a2b5
p3885
F410.958375
tp3886
a(V366d4d2b-c450-4f3e-be3c-ab069c18aeb8
p3887
F419.78775
tp3888
a(V98b8d96f-9700-49f7-b30d-984ccf9294fd
p3889
F464.822875
tp3890
a(Vf72ca0c9-fd84-432a-9904-e6327220044f
p3891
F535.19675
tp3892
a(V698d6fc2-4b81-480b-bc31-59581da78316
p3893
F556.068625
tp3894
a(Ve07edbd3-33a2-4db1-a78e-0d6455d8e2a0
p3895
F600.058875
tp3896
a(V3ffea960-050c-4f63-b944-5eaa78fd6bce
p3897
F612.813375
tp3898
a(Veb8ea266-205a-405d-8178-25d5e0da1902
p3899
F624.58775
tp3900
a(Vedee4ec1-6a5d-4c5e-b0fc-5d7c2d02e908
p3901
F767.60825
tp3902
a(V27c1e43b-930b-4d23-831b-b5926ec5072d
p3903
F767.60825
tp3904
a(Ve5f267fa-2c14-4b13-8281-db6f34175fad
p3905
F781.871
tp3906
a(V378ab482-9d87-47b7-9471-5f5c65923339
p3907
F857.234375
tp3908
a(V6b8184f2-c45d-4065-9269-3e9a73fc2fdc
p3909
F1024.444125
tp3910
a(V569b8358-b318-409f-a8e8-1da724f01809
p3911
F1331.9315
tp3912
a(V07f75444-5832-468e-b317-876bc290ff03
p3913
F1383.706125
tp3914
a(V2898061b-df61-479b-a2f9-8424be589a34
p3915
F1444.911
tp3916
a(Vd1ac781a-d042-4b91-988c-9ca8ef0911c1
p3917
F1616.979625
tp3918
a(V965138dd-1c9a-4cf5-8742-97ae7ad607fa
p3919
F1628.656375
tp3920
a(V1634762f-a482-473c-935c-7883f16f26cb
p3921
F2722.847375
tp3922
asVRatipati priya
p3923
(lp3924
(V85a35e5c-bcc6-4ea3-9a7f-e27843c8e978
p3925
F177.188625
tp3926
asVDurga
p3927
(lp3928
(Vf7e6976c-b283-47ec-ba9c-b148541d42e6
p3929
F347.428625
tp3930
a(Vfd332fde-6830-4861-b8a0-d987f339a1b1
p3931
F383.477625
tp3932
asVK\u0101mavardani/Pantuvar\u0101\u1e37i
p3933
(lp3934
(V3bc2e9ff-698c-4c76-8a21-1c8de447b0ce
p3935
F209.476
tp3936
a(V851295a3-6f00-47e5-b99f-28523e02acfa
p3937
F221.074375
tp3938
a(V9e288e72-b728-4ec4-b50e-e4a8d0f2b9bd
p3939
F223.50375
tp3940
a(V70b0dd53-2a4d-4e59-bc6d-fd92a8b1b3f2
p3941
F309.15925
tp3942
a(V64fe1441-a9a0-4a3f-86e6-91321958668e
p3943
F439.04
tp3944
a(V3adb8fd5-66f7-47ea-87cf-6acf00f79e00
p3945
F450.142125
tp3946
a(V68c10425-9ac1-4d40-a4ef-232b1f2e9244
p3947
F594.18125
tp3948
a(V3dec9738-d123-4d75-b278-58c8250832b3
p3949
F628.036
tp3950
a(V136a97b3-beae-4f65-a746-2b5cbd843f5f
p3951
F723.76
tp3952
a(Vbfe09186-00d1-46e0-9eed-bfb872ef5c3a
p3953
F726.961625
tp3954
a(Vddae48a1-b882-4693-87e7-a9ee6e864508
p3955
F732.21225
tp3956
a(Vc915519b-a522-40aa-a0e9-d94d310ef4a9
p3957
F764.76
tp3958
a(V54bf20a0-d18b-44da-b5ae-37adfb98f45b
p3959
F797.231
tp3960
a(V52b3552e-dc72-4995-b47d-bf9c4e6d7155
p3961
F797.831875
tp3962
a(V2da84bf7-c3ab-415f-b498-0a3096a8c8d2
p3963
F803.422125
tp3964
a(Vb8e5c465-b4a1-45a5-ba32-824fbd4cfe3a
p3965
F848.0915
tp3966
a(V8a05b8a9-589b-498f-8f58-f7e151b096f3
p3967
F932.7805
tp3968
a(V6c6ad237-dab0-4598-b247-b8a19324a26c
p3969
F939.8335
tp3970
a(Vfcc60a0f-6ced-4a05-b7b8-4dc29d87c546
p3971
F968.725
tp3972
a(Vda92d304-ac5f-4905-b0e7-b8d8e16d9ed0
p3973
F969.11675
tp3974
a(V49039ca4-4ece-426a-a358-70a61d8f25f2
p3975
F1004.382125
tp3976
a(V5020d866-f282-41d6-b653-39f930f83c8c
p3977
F1014.88325
tp3978
a(V3d0d0fcc-955c-4343-b90d-a650c2bd48ea
p3979
F1092.72825
tp3980
a(Ve57d03ee-098c-4612-a1aa-988a653bfe41
p3981
F1227.99025
tp3982
a(Vd82f13b6-390f-467e-bd35-dc040b6667e3
p3983
F1254.45225
tp3984
a(Vbc6f2cbc-abe3-4bba-b4b4-a876710b7650
p3985
F1284.885
tp3986
a(V59c671be-6055-431f-bebf-9fc0fe428de9
p3987
F1311.70675
tp3988
a(V4f471ee3-0f9d-4fce-948e-3316e7444134
p3989
F1409.933125
tp3990
a(V6c7f0f18-0ba6-471a-b641-0231ed4b7377
p3991
F1608.477875
tp3992
a(V0d09bf2a-5fef-43df-a50f-a0bfa92af646
p3993
F1700.231875
tp3994
a(V523a60bf-3060-4e07-9907-0435b76114be
p3995
F1708.669375
tp3996
a(V70c6bdf2-3fe0-462d-8e78-8205f0d071eb
p3997
F2105.626125
tp3998
a(Vc4cc6ba4-d456-4fb8-8d31-56a19a7d6312
p3999
F2185.63925
tp4000
a(V4fb8af33-df20-48dc-ad21-0eeb7eb47c91
p4001
F2202.48825
tp4002
a(V719afb04-295b-4bab-8fed-c341dde211ca
p4003
F3000.12
tp4004
asVBalaha\u1e41sa
p4005
(lp4006
(V6164df33-390c-4d75-9cd1-d99f97484d2e
p4007
F214.805
tp4008
asVDvij\u0101vanti
p4009
(lp4010
(V83d2e11e-9d1e-4bcb-a6e5-29cfc494782a
p4011
F343.0
tp4012
a(V82734724-5015-41ef-aa38-d03bc86dad2e
p4013
F343.327375
tp4014
a(V1f363a3a-9765-46c5-b47f-3307536003d5
p4015
F361.339875
tp4016
a(V33f3a6c1-fa4e-44e3-a712-d1737ec08957
p4017
F362.29225
tp4018
a(Vb759e8db-c489-481b-a4b5-a6f912f8f759
p4019
F378.566625
tp4020
a(V7a774a76-f3a9-4f85-88f8-efa256603bc9
p4021
F496.24825
tp4022
a(V7cb260b3-4dc4-4d45-96d9-4be8e06a64ed
p4023
F530.129
tp4024
a(V234cccff-a5c2-4dde-acec-164d39600764
p4025
F551.026875
tp4026
a(V7ce1863c-ddd4-4d40-8ec6-8f99afc46693
p4027
F675.89225
tp4028
a(V93453f59-c459-4602-b75b-aa87aeb2914f
p4029
F682.579625
tp4030
asVP\u016br\u1e47a \u1e63a\u1e0dja\u1e41
p4031
(lp4032
(Vfce494df-b99a-4a9e-88e3-381dbe009d95
p4033
F218.409875
tp4034
a(Va11d58d6-92f4-4400-82f6-9ebf490669d1
p4035
F229.511875
tp4036
a(Vd48175d8-6296-4577-b2bf-46579dabe70b
p4037
F334.13225
tp4038
a(V65d3dd67-f8aa-4909-89d6-fabbe28e6ed4
p4039
F336.117625
tp4040
asVVijayanagari
p4041
(lp4042
(V76c904b4-a9a9-4102-a404-5b3e223ec1fb
p4043
F285.49225
tp4044
asVP\u016brv\u012bka\u1e37y\u0101\u1e47i
p4045
(lp4046
(Va432ceec-0c04-485b-bef1-75e222068201
p4047
F201.586875
tp4048
a(V4a5e6fd6-c0fe-44c7-af35-b8f11e0bfefc
p4049
F268.068625
tp4050
a(V89ccba04-b108-46f7-8edf-0911b538bc59
p4051
F287.791
tp4052
a(V7dfc2a57-56f3-45d8-96fe-b5cd1b406dc6
p4053
F314.148625
tp4054
a(Vee2d72ab-0719-4305-bb74-87f2b814cccd
p4055
F354.2205
tp4056
a(Va6ed61c4-e82d-4191-8181-b3997cb4e137
p4057
F402.573125
tp4058
a(Vf6cb130b-c064-48e6-a804-bd697799f0be
p4059
F466.07675
tp4060
a(Ve3659f07-240a-42c2-be3e-dd8ee8633571
p4061
F501.08075
tp4062
a(V30c4acdb-a142-45cd-8096-cc245fc6d255
p4063
F547.970625
tp4064
a(Ve5022fc3-f0ba-40a2-9706-2b8fdbe484b8
p4065
F611.38675
tp4066
a(V30362cff-a59e-4e28-918a-b0c917f10878
p4067
F638.276
tp4068
a(V8e0515d4-3671-4ecf-9e31-0029be2ec65e
p4069
F669.257125
tp4070
a(V417965fd-81b5-4d00-8cad-f2eb3b9d9315
p4071
F677.12
tp4072
a(Vbc7eb868-8acb-40f5-98ee-e19fb635e21c
p4073
F754.102875
tp4074
a(V54e5538e-e0fd-41e9-ba7b-2b1fe45fb75b
p4075
F765.44
tp4076
a(V9e27e670-090b-4191-b871-82e4c18b7be1
p4077
F870.269375
tp4078
a(V4f54c24e-3109-4e54-9780-768ccc5a0b52
p4079
F1293.218
tp4080
a(Vab83b92e-f38d-41e1-92ed-dbd6fbe4365f
p4081
F1315.657125
tp4082
a(Ve75d4209-fd08-4dd0-9cf1-0282bd4addbf
p4083
F1344.287375
tp4084
a(V9af0f7b7-9ac1-4c5f-bb3c-bb14dd20c153
p4085
F1388.6955
tp4086
a(V8d665e79-8ad7-4e4b-b3c8-4e7d2e75a621
p4087
F1458.6515
tp4088
a(V73e1c432-8129-4f68-89c3-4ae7a338d658
p4089
F1672.124125
tp4090
a(V5bdb990d-550a-494c-a750-0dbcc1c00a77
p4091
F1811.618
tp4092
a(Vc978ecfd-eaf9-4846-8603-373d42cad3b0
p4093
F1853.309375
tp4094
a(V3427f4b7-20e5-4abd-8171-bac216f2c213
p4095
F2760.4115
tp4096
a(V6e615445-2878-4441-8d71-f4d5cbbf252c
p4097
F3049.508625
tp4098
a(V27daf63a-d2a8-4323-8eef-c814e9c2bb02
p4099
F3268.597625
tp4100
a(V9383a5b6-662c-40dc-a006-c2307230a176
p4101
F3445.316
tp4102
asVS\u0101v\u0113ri
p4103
(lp4104
(V0177cfe7-47e7-4eb5-8173-b9fce6fd9781
p4105
F194.586125
tp4106
a(Vf8d513ac-b168-4645-913c-56378dabc0fb
p4107
F207.94675
tp4108
a(Vc89fc3ba-383f-4d77-915f-4cfd41d202ce
p4109
F225.933125
tp4110
a(V51be244d-17aa-4c44-88f7-82d00225da0e
p4111
F297.404125
tp4112
a(V36b431e2-5584-484a-a1a5-7470e23345bb
p4113
F307.24025
tp4114
a(V6fb9eab4-fcb3-4488-8222-8cc7acdf7133
p4115
F310.2825
tp4116
a(Vf6c50f61-347b-4bdb-83ca-b7e52b6104cf
p4117
F316.2645
tp4118
a(V75c35214-8e3a-4f92-9a90-3c2d9dd9f24e
p4119
F320.130625
tp4120
a(V1a8e1106-7ff6-4873-87e0-0a1931e6174d
p4121
F367.68
tp4122
a(V55d1cb0f-3cf1-409f-8247-c6318db034c8
p4123
F422.582875
tp4124
a(Vbb84c16a-f627-497c-9788-ec541337e335
p4125
F426.60575
tp4126
a(V99a307c3-c112-4be8-ae3e-0cd1e2881ffd
p4127
F431.490625
tp4128
a(V9838a0b5-29f0-49bf-b79b-d499d90fdc0e
p4129
F436.245
tp4130
a(Vf70ca71a-af1f-400e-a597-1a409500a946
p4131
F439.379625
tp4132
a(V2c61d608-dea5-4d89-b3a3-45e0292e237b
p4133
F465.188625
tp4134
a(Vea294ce2-4734-435b-a272-fa9440c249ea
p4135
F483.056375
tp4136
a(V9bac6a08-158e-42eb-8a9b-4ad5b90a6e1a
p4137
F493.206
tp4138
a(Vd17fc49c-5c9a-4dd2-9e1e-334078473e63
p4139
F517.407375
tp4140
a(V659ecbc4-7aa0-43c3-b41d-69b98ac48014
p4141
F767.88
tp4142
a(Vb8af04ff-bcec-4f6f-bcbc-c4862ef358aa
p4143
F945.00575
tp4144
a(Vcdce6bca-67d8-47c8-8426-098fb8ca61a4
p4145
F1040.7445
tp4146
a(V0e7727c5-869b-4dd6-95d4-c92ac2b10d44
p4147
F1081.0515
tp4148
a(V7964d4e7-82aa-491d-880e-e297a522dacb
p4149
F1173.629375
tp4150
a(V02ad2973-28de-4695-af92-01d2acd604f5
p4151
F1244.76075
tp4152
a(V7217f9d0-3bdd-4415-af50-507a8257c44e
p4153
F1431.50675
tp4154
a(V35c1056e-091a-43db-b9f5-df1f1d5bf45c
p4155
F1746.416375
tp4156
a(Vbb86b98b-36fc-4d86-a2da-27ce9fc59317
p4157
F1827.03025
tp4158
a(V3dabbf57-d069-4b2c-b4cd-b1387f0460ce
p4159
F1908.3755
tp4160
a(V56b13d8e-5237-4980-96e2-ffb5528b93db
p4161
F2735.06075
tp4162
asVKumudakriy\u0101
p4163
(lp4164
(V8c2f3b3f-5250-4b73-b02d-bc7012ad5e12
p4165
F364.709625
tp4166
a(V977d357f-4810-41fc-b495-21405f3f729c
p4167
F1744.210125
tp4168
asVSindhubhairavi
p4169
(lp4170
(Vd5293835-50a0-4be1-bc2b-15e3e75794f6
p4171
F131.78775
tp4172
a(V2e1a8362-f23b-412d-9869-29f57f0cc434
p4173
F167.209875
tp4174
a(V6f3a6b0f-2c16-4fc1-a27b-4fb066d2bbb6
p4175
F188.2645
tp4176
a(Vd753c77e-7ff5-404c-86b5-2af091410950
p4177
F203.441625
tp4178
a(Vea8bdd2b-0817-4619-8418-a38d9aebc60a
p4179
F207.96075
tp4180
a(V894ede7b-f5aa-44e7-97b4-76eb69e5869b
p4181
F216.738
tp4182
a(V9250e2d7-5b9c-4622-bf1c-3e905ff26407
p4183
F220.369
tp4184
a(Vd81fb8b2-3222-49f9-aeb1-b46f733692ad
p4185
F222.708
tp4186
a(V33ab13c8-5677-4a4b-b76b-ac4dc7957acf
p4187
F226.92575
tp4188
a(V0d7e1620-60ad-472f-8287-abac88966c46
p4189
F261.59025
tp4190
a(Vedcd68bc-eb0a-4810-a056-e56237bef387
p4191
F267.36325
tp4192
a(Vf3ab2db7-3d30-432a-88d0-a21db4286468
p4193
F267.46775
tp4194
a(V86722949-d6c4-473f-86c9-2fb1b8390c1b
p4195
F274.07675
tp4196
a(Va32ba9dd-a764-4719-a3ce-8f1469b6291b
p4197
F310.909375
tp4198
a(V92079af8-b97c-459c-9662-4f61d0927242
p4199
F313.6
tp4200
a(V9b5b7fe8-178c-4af3-bcb7-6964d4511752
p4201
F326.988875
tp4202
a(Va31e55c0-1d5f-4d77-9ddf-cabc69901ef4
p4203
F334.50675
tp4204
a(Vdc655340-c73f-422d-80a2-efc0421b1e55
p4205
F347.45475
tp4206
a(V776c9034-a445-4bc7-892a-82cbfb5ff2f1
p4207
F364.95675
tp4208
a(V9b96cd00-2e25-4adb-a1b3-40d8f4a88068
p4209
F382.693875
tp4210
a(Vb3bfd3a3-c8ca-4e1f-9e2f-3698cbe34e48
p4211
F385.671875
tp4212
a(Vc850653f-357e-402b-aa22-07f2f5fc85a1
p4213
F392.437625
tp4214
a(V56946cdc-f9ea-4951-8033-4e6c9d2151a4
p4215
F409.6
tp4216
a(V61d8336a-9b30-4fb9-827d-63fe8ce24381
p4217
F428.329875
tp4218
a(Vcc475479-1358-41de-a76a-5f792b89a02d
p4219
F452.42675
tp4220
a(V20ec9adb-40ee-4efa-9fd2-5bd2e43568b6
p4221
F470.8
tp4222
a(Vcfea4d3f-c5b3-4b95-9023-284372e59cd2
p4223
F477.70125
tp4224
a(Vdedbf896-50fb-4819-a702-33c661b982a9
p4225
F510.902875
tp4226
a(Vfa5bef1e-a618-4cc5-9779-e081bdbaa61d
p4227
F597.133125
tp4228
a(Vc5c53a41-f7de-4aed-b65b-b0e26138d9fe
p4229
F642.16825
tp4230
a(V901d287e-43f8-4af2-bf44-c151c1daffa6
p4231
F686.75925
tp4232
asVV\u0101santi
p4233
(lp4234
(Vadb1172e-89f6-4c7c-a7ff-5d00af352e84
p4235
F239.595125
tp4236
a(V7895e2e3-776a-4590-83be-5f3f9785995b
p4237
F365.139625
tp4238
a(V78a633b5-7871-40f7-acbe-ce54e6ffcd4d
p4239
F459.389375
tp4240
a(V63e864ad-b4d9-4858-8c02-c5fdb018911d
p4241
F496.561625
tp4242
asVTill\u0101ng
p4243
(lp4244
(V1e325d45-1615-45ec-b81a-47df85ca72aa
p4245
F363.409375
tp4246
a(Vcc0f6bbe-f9c7-4978-8380-dcaf9ae44182
p4247
F470.099625
tp4248
asVNavar\u0101gam\u0101lika
p4249
(lp4250
(Vcedd4c8f-bf88-4820-8d42-09e6b31f70d1
p4251
F373.446625
tp4252
a(V6bb7c095-9229-4ea8-ae69-62520b19f0ec
p4253
F425.0645
tp4254
a(Ve259379f-2b6c-4b2a-beed-802e004eeaae
p4255
F439.5625
tp4256
a(V9b6a48ae-0f47-46dd-9e69-dba90f3770e0
p4257
F440.502875
tp4258
a(V26edd341-14fc-4c65-8904-8db801afbf2f
p4259
F805.250625
tp4260
asVKal\u0101vati
p4261
(lp4262
(V38b6a346-774a-4cb0-8929-8f394b92f9c2
p4263
F431.50675
tp4264
a(Ve1a74ccb-655e-4e37-b828-d40f3c1a15ec
p4265
F532.95025
tp4266
a(Ve66a8d27-c150-4413-8ff3-1055283f2bfb
p4267
F662.98775
tp4268
a(V9687ecc8-1526-4eb2-86d7-4d81dfce803b
p4269
F1341.7535
tp4270
asVJ\u014dgiya
p4271
(lp4272
(Vd6def73c-429e-4fb2-8c60-262d73e5723f
p4273
F467.77475
tp4274
asVK\u0101na\u1e0da
p4275
(lp4276
(V825f48e3-8323-40d9-bc47-d29de805b8b1
p4277
F92.88
tp4278
a(Ve26cf70c-ce6c-47c2-b7bf-199f2cdd5a62
p4279
F243.62675
tp4280
a(V862a5bd7-a512-4205-a44e-07e787e5e3cc
p4281
F256.78375
tp4282
a(Vf5574da9-85aa-4290-be01-2c4147ae1c76
p4283
F268.30375
tp4284
a(Vc5f47b17-dc32-43ea-b866-4b648d46c2e6
p4285
F293.746875
tp4286
a(V9fd85eb8-8d37-470f-8261-d7814af370ae
p4287
F306.80825
tp4288
a(V34bca704-4dbe-4aba-b65b-4e19f5c342bd
p4289
F332.538875
tp4290
a(Vf7a38df5-e60a-4be2-9925-592298792706
p4291
F338.677625
tp4292
a(V0e2350f2-bf49-4bf6-8c5c-83fee8e6c396
p4293
F341.577125
tp4294
a(V417747bb-9210-456d-b6e5-6b4502b924bc
p4295
F350.537125
tp4296
a(V7f12854a-3a60-4a98-8950-14bf4d6a89b2
p4297
F358.165
tp4298
a(V57c51790-e088-4790-ab35-a6aa67822157
p4299
F363.12825
tp4300
a(V9f56f2b9-9cb3-41d1-bf03-65486374f4a5
p4301
F421.6425
tp4302
a(V4fb42f4f-0204-4151-8f21-54ddc8e670b5
p4303
F425.653375
tp4304
a(V15342953-9a8f-435d-989b-375ef7e7d411
p4305
F454.165
tp4306
a(Vee319512-1b9b-4ef0-a279-6e9a09b32915
p4307
F481.3845
tp4308
a(V5a6ed43b-e79f-4dfc-ae67-f0c97770a6e2
p4309
F514.690625
tp4310
a(V39ef255f-8442-46d3-a813-d13e9ec88681
p4311
F551.94125
tp4312
a(V7d638ff2-377d-4443-b34a-01984058f43c
p4313
F692.48
tp4314
a(Va70607a3-c562-4d38-84b2-eb314eb750b1
p4315
F740.83275
tp4316
a(V17b24021-3716-4de5-907c-8105e0219647
p4317
F993.43675
tp4318
a(V6286d24d-7101-471b-866d-77809f1ed31b
p4319
F1457.554375
tp4320
a(V9ba2ceb8-c6a0-4320-a0be-ed4e6783e810
p4321
F1878.622125
tp4322
a(V66cfbbdb-444b-4155-9565-3dee209775de
p4323
F2115.34375
tp4324
a(Vf807bd1b-f80b-4d0f-b7a7-984ef7b0599c
p4325
F2241.410625
tp4326
asVS\u0101r\u0101mati
p4327
(lp4328
(Vc760ee4b-0b15-404c-83b7-eb11b857dcd4
p4329
F302.86675
tp4330
a(V767e2cb2-df2e-4ab4-8483-8519e0910fd1
p4331
F472.346125
tp4332
a(Va8a56697-7282-40f6-bbc7-9aad2f78a662
p4333
F1441.11125
tp4334
a(V6f76dfef-b05f-4753-934d-9675ff9dbc44
p4335
F4241.52825
tp4336
asVPu\u1e47\u1e47\u0101gavar\u0101\u1e37i
p4337
(lp4338
(Va5bd18c9-03f8-46a4-b2f0-e2254d55847e
p4339
F183.1445
tp4340
a(V1b8541ce-0fd5-4c26-97a3-1996db9effbe
p4341
F231.9815
tp4342
a(V742749b6-4af9-458c-a57a-9cfbee0219ed
p4343
F280.006625
tp4344
a(V6ddcc7a8-f88f-4678-b242-fc6ccef26d36
p4345
F288.209
tp4346
a(V7b5332a2-5ac0-4427-a234-25f9725e8feb
p4347
F323.55275
tp4348
a(V2d480b86-4b90-4965-91e3-8ace3d05672d
p4349
F350.589375
tp4350
a(V8761d94d-5445-461b-8a45-921a3eb0e52b
p4351
F430.23675
tp4352
a(V0efa6531-54dc-4d9f-92ca-932a686481cf
p4353
F526.8115
tp4354
asVS\u0101ma
p4355
(lp4356
(Vf6681a27-9982-43e1-b92f-91f784b756f4
p4357
F237.3225
tp4358
a(V56c85b63-ffa3-4ba4-8112-6ffcfb387162
p4359
F254.11925
tp4360
a(Vbc4fe9b6-0ccd-4c84-b591-d035b9369993
p4361
F255.08575
tp4362
a(V900787dd-83ef-41b9-9d3e-f3ee1e505d52
p4363
F298.24
tp4364
a(Vfe3a41dd-b435-4aa8-a928-268ab98af396
p4365
F299.702875
tp4366
a(Vc6e17b47-57cd-4095-bfab-4cb7f335357c
p4367
F321.1635
tp4368
a(V542d612c-7767-41a7-9b92-35cbf1fab0eb
p4369
F326.269375
tp4370
a(V7970115a-cc46-4678-a067-e47236435ba7
p4371
F341.0025
tp4372
a(Ve7061eef-12aa-4cdb-85ca-58b3d557f302
p4373
F357.79925
tp4374
a(V7784f792-770c-49f6-84f6-e37b29fed2d0
p4375
F368.169875
tp4376
a(V59c42b30-1d51-41e1-8e81-13bb471e94a2
p4377
F374.54375
tp4378
a(V15479955-af24-4f77-9a39-84a35a5c06f0
p4379
F384.5225
tp4380
a(Ve4bb9f6a-495a-4f6f-9618-9d86a9693bc2
p4381
F391.39275
tp4382
a(Vb87b9d73-ecb0-405a-a921-5e50e14608fa
p4383
F428.773875
tp4384
a(Vec4fe018-831b-4377-bd5c-e588b117cc5e
p4385
F618.475125
tp4386
a(V3a76193c-5ee6-44dd-8307-a81fbcbd44a3
p4387
F626.8605
tp4388
asVGau\u1e37a
p4389
(lp4390
(Vbd9c9aef-6b6d-4138-aff5-724f123becd1
p4391
F229.877625
tp4392
a(V83ac0d01-9145-41a7-96fc-3ddb31d5a391
p4393
F238.419625
tp4394
a(V3a481433-3451-47f5-8868-6fe79b823127
p4395
F333.505375
tp4396
a(V1faf01d1-2228-4547-9ff0-1866cd2fd73e
p4397
F392.50675
tp4398
a(V167129a1-d931-4d86-a27d-7ce609944148
p4399
F404.271
tp4400
a(V6a698b2d-b27e-49ad-b09a-7d4a83f1c866
p4401
F445.9625
tp4402
a(Ve7437e39-ebdc-4e43-bcb5-e0e1f48fdcb6
p4403
F499.435125
tp4404
a(V661c6bec-730c-4c02-abad-c0e3728db5d1
p4405
F503.5625
tp4406
a(V37026ee1-add1-4a61-a9ad-5619296f6ced
p4407
F525.636
tp4408
a(V64b8046f-b2dd-4bd1-bbcf-07c0cd16d63c
p4409
F635.35025
tp4410
a(V4ae7424c-948c-43c2-80f9-fb919f7cf9be
p4411
F651.12825
tp4412
a(V0f2006e9-ce85-47c2-a45b-de3586662d99
p4413
F745.64
tp4414
a(V3d65a06b-af6d-46d2-bd44-10cd5136c844
p4415
F801.73825
tp4416
a(V8086a3cb-fe50-40a5-9338-f6b3d42b0ca8
p4417
F868.5715
tp4418
a(V9f74f37a-0763-4098-9a15-928911c59f7d
p4419
F902.217125
tp4420
a(V4e423cf6-61e5-4ab7-94cf-91442aff9aee
p4421
F1025.671875
tp4422
asVHamsavin\u014ddini
p4423
(lp4424
(V1bc8ed9a-57a2-4e9f-b32a-ed5608abb7af
p4425
F716.0425
tp4426
asVVijaya\u015br\u012b
p4427
(lp4428
(V27196397-caa0-44c3-88c1-a6f7d54d7eed
p4429
F270.001625
tp4430
a(V20eed287-02f9-4e0b-a575-d7a358f07394
p4431
F322.56
tp4432
a(V345d5e37-3def-4469-b8e6-4411f3ca11ca
p4433
F608.99275
tp4434
a(Ve095af9a-6d0d-4d2f-bbe3-bc1740fa6d69
p4435
F608.99275
tp4436
asV\u1e62anmukhapriya
p4437
(lp4438
(V492da8b2-c67b-451e-96e9-6956870a0049
p4439
F177.369625
tp4440
a(Ve1b0148b-1542-4e44-83b1-c92c1f0ca56e
p4441
F206.08
tp4442
a(V7e43c413-89d0-491c-add2-2b1520d7cb33
p4443
F208.666125
tp4444
a(Vaf6a1ff7-98b3-4e99-8133-5a15f66d8904
p4445
F225.776375
tp4446
a(V8197dd11-0865-49ff-9afc-8e7aa8c3080c
p4447
F263.053125
tp4448
a(V874a5b30-2eed-4760-8fba-431a4f290dcc
p4449
F386.56
tp4450
a(V4b327e7a-6146-4f44-a5ff-b4c099a8bfb5
p4451
F405.969
tp4452
a(V96ea7753-a2cc-4cf5-be0e-042acd56d29c
p4453
F429.9755
tp4454
a(V9d4fc1a8-91fc-4900-8546-f7351da37e99
p4455
F499.0955
tp4456
a(V0ded0c52-7f15-4140-b45a-ca829106d053
p4457
F742.165
tp4458
a(V16a3263f-31dc-40da-839b-f5955b77c0b6
p4459
F754.979125
tp4460
a(V22601164-1342-42ae-9a27-02a9a657bb55
p4461
F935.07925
tp4462
a(Vca5c5c46-47d9-4fa9-a5d8-ab6120940a6d
p4463
F1599.059625
tp4464
a(V3f216335-5df3-4312-a840-3b67e39976ff
p4465
F1772.2515
tp4466
a(V33d896d2-1a7b-4e5f-9508-c3fb5d228c94
p4467
F1920.391875
tp4468
a(V478aa625-30b2-4f55-82c4-4953eaff0963
p4469
F2666.266125
tp4470
a(Vcb4a75f3-0005-4311-bd4c-2fa97da53bf3
p4471
F2940.76
tp4472
a(V3fb546e4-a108-4b86-a368-02e3a5b9e96d
p4473
F3788.0425
tp4474
a(V66a741cb-bdfb-41c7-8705-298e12d8e990
p4475
F4580.063125
tp4476
asVBilahari
p4477
(lp4478
(V9066abf7-10c4-4b8b-8527-354ffe82e0c9
p4479
F88.711875
tp4480
a(V96d200b2-5206-4dc2-a853-ebb9314df2c4
p4481
F367.30775
tp4482
a(Vf40e7c2f-39da-4d98-8db6-4fb2739a87bf
p4483
F394.5535
tp4484
a(Vb4f61d2b-81d3-4747-8a00-6cedb3274698
p4485
F400.7445
tp4486
a(Vda9db033-54a1-4b1b-8fc1-6f7635002e61
p4487
F467.56575
tp4488
a(V64a9bee2-d55e-46ce-97b3-2b0e59382238
p4489
F486.0605
tp4490
a(V35b62e92-a2b3-48ad-8312-c1d262062b2d
p4491
F573.9625
tp4492
a(V41c17e7d-b180-4ebe-bb6e-dee73a814dd3
p4493
F588.591
tp4494
a(V3d901cfd-113b-4b49-98e0-07bfa9778998
p4495
F655.6735
tp4496
a(Vb9ba191d-5e96-4a6e-a185-5ecaf4f3eb58
p4497
F763.35025
tp4498
a(V0be1af7a-4576-4618-bd6b-6645fb1c7c07
p4499
F875.57225
tp4500
a(Vb981ddfa-9899-4740-8190-21eb7b15548b
p4501
F1140.558375
tp4502
a(Vb09089ff-2cb2-4d3e-b10d-f2ee6afb5451
p4503
F1227.049875
tp4504
a(Vd794bd7f-4398-4194-a186-7c41753699bc
p4505
F1312.0
tp4506
a(V8de77159-54d5-49d1-826f-caccd02c8fdf
p4507
F1604.049
tp4508
a(Vbae68558-8dc9-4eb5-a62a-94ef084f8e20
p4509
F1715.382875
tp4510
a(V18f47952-597e-425d-b048-9c5e2490e589
p4511
F1950.56325
tp4512
a(V9868fb50-597c-45cc-83dd-acce45d415cf
p4513
F2835.35675
tp4514
asVJingala
p4515
(lp4516
(V67f4053f-d0af-4f05-9baf-175cb40117c7
p4517
F235.57225
tp4518
asV\u0100nd\u014d\u1e37ika
p4519
(lp4520
(V11529241-ba53-4e1c-b46e-87d8b68a7e79
p4521
F265.9005
tp4522
a(Vc60ac21a-0d3d-46ab-828b-e45ba742e747
p4523
F644.72825
tp4524
a(Vf2dd96aa-ae12-490f-bb5c-a7c92f3e3ed8
p4525
F1158.55675
tp4526
asVCakrav\u0101ka\u1e41
p4527
(lp4528
(V8002368f-d62e-413b-a0b9-3a20f5977384
p4529
F91.010625
tp4530
a(V4a87c40d-9006-4dd7-9ff6-cf08caeb9a73
p4531
F131.55275
tp4532
a(V5f2f1812-0de7-4be1-97d6-6afd0c3b9121
p4533
F291.213125
tp4534
a(Vffb13ae8-a22a-4d2f-8208-86241543bfed
p4535
F444.342875
tp4536
a(Vb5e45868-c988-41ae-8d42-290ce44ccc7f
p4537
F523.02375
tp4538
a(Va77ee2cb-7773-4401-bef0-f8fe20f6bb91
p4539
F640.9285
tp4540
a(V367f884a-5de9-4f45-a139-82a067c13865
p4541
F755.80075
tp4542
a(V6ba600f6-6347-495a-a70d-e34f66fac26f
p4543
F809.351875
tp4544
a(V85f6f7d5-2d81-4140-896e-d3f6f49c20ed
p4545
F1124.989375
tp4546
asVN\u0101yaki
p4547
(lp4548
(Vbe66739f-2d14-43aa-bc86-fc558cb46daf
p4549
F196.885
tp4550
as.